MPLINK 5.00, LINKER
Linker Map File - Created Mon Feb 17 18:09:49 2014

                                 Section Info
                  Section       Type    Address   Location Size(Bytes)
                ---------  ---------  ---------  ---------  ---------
                   .org_0       code   0x000000    program   0x000002
                   .cinit    romdata   0x000001    program   0x000004
                   .org_1       code   0x000004    program   0x0001f6
.config_2007_BUILD/DEFAULT/PRODUCTION/FLICKER       code   0x002007    program   0x000002



                              Program Memory Usage 
                               Start         End      
                           ---------   ---------      
                            0x000000    0x000002      
                            0x000004    0x0000fe      
                            0x002007    0x002007      
            255 out of 8454 program addresses used, program memory utilization is 3%



                              Symbols - Sorted by Name
                     Name    Address   Location    Storage File                     
                ---------  ---------  ---------  --------- ---------                
            Clear_Display   0x0000c8    program     static C:\Users\Doge\Documents\GitHub\robot\Phototest.X\flicker_for_me.asm
                  Delay_0   0x0000a5    program     static C:\Users\Doge\Documents\GitHub\robot\Phototest.X\flicker_for_me.asm
               Flick_fail   0x000015    program     static C:\Users\Doge\Documents\GitHub\robot\Phototest.X\flicker_for_me.asm
                    HalfS   0x000092    program     static C:\Users\Doge\Documents\GitHub\robot\Phototest.X\flicker_for_me.asm
                  HalfS_0   0x000098    program     static C:\Users\Doge\Documents\GitHub\robot\Phototest.X\flicker_for_me.asm
                  InitLCD   0x0000aa    program     static C:\Users\Doge\Documents\GitHub\robot\Phototest.X\flicker_for_me.asm
                 LED_fail   0x00000b    program     static C:\Users\Doge\Documents\GitHub\robot\Phototest.X\flicker_for_me.asm
                     Pass   0x000005    program     static C:\Users\Doge\Documents\GitHub\robot\Phototest.X\flicker_for_me.asm
             Switch_Lines   0x0000cb    program     static C:\Users\Doge\Documents\GitHub\robot\Phototest.X\flicker_for_me.asm
              Testing_Msg   0x000023    program     static C:\Users\Doge\Documents\GitHub\robot\Phototest.X\flicker_for_me.asm
                  WR_DATA   0x0000dd    program     static C:\Users\Doge\Documents\GitHub\robot\Phototest.X\flicker_for_me.asm
                   WR_INS   0x0000ce    program     static C:\Users\Doge\Documents\GitHub\robot\Phototest.X\flicker_for_me.asm
             _.org_1_0048   0x000048    program     static C:\Users\Doge\Documents\GitHub\robot\Phototest.X\flicker_for_me.asm
             _.org_1_0099   0x000099    program     static C:\Users\Doge\Documents\GitHub\robot\Phototest.X\flicker_for_me.asm
             _.org_1_009B   0x00009b    program     static C:\Users\Doge\Documents\GitHub\robot\Phototest.X\flicker_for_me.asm
             _.org_1_009E   0x00009e    program     static C:\Users\Doge\Documents\GitHub\robot\Phototest.X\flicker_for_me.asm
             _.org_1_00A6   0x0000a6    program     static C:\Users\Doge\Documents\GitHub\robot\Phototest.X\flicker_for_me.asm
               _5end_disp   0x00005f    program     static C:\Users\Doge\Documents\GitHub\robot\Phototest.X\flicker_for_me.asm
              _5loop_disp   0x000057    program     static C:\Users\Doge\Documents\GitHub\robot\Phototest.X\flicker_for_me.asm
               _7end_disp   0x000075    program     static C:\Users\Doge\Documents\GitHub\robot\Phototest.X\flicker_for_me.asm
              _7loop_disp   0x00006d    program     static C:\Users\Doge\Documents\GitHub\robot\Phototest.X\flicker_for_me.asm
               _8end_disp   0x000085    program     static C:\Users\Doge\Documents\GitHub\robot\Phototest.X\flicker_for_me.asm
              _8loop_disp   0x00007d    program     static C:\Users\Doge\Documents\GitHub\robot\Phototest.X\flicker_for_me.asm
               _9end_disp   0x000091    program     static C:\Users\Doge\Documents\GitHub\robot\Phototest.X\flicker_for_me.asm
              _9loop_disp   0x000089    program     static C:\Users\Doge\Documents\GitHub\robot\Phototest.X\flicker_for_me.asm
                aboveboth   0x000086    program     static C:\Users\Doge\Documents\GitHub\robot\Phototest.X\flicker_for_me.asm
         check_threshold1   0x000066    program     static C:\Users\Doge\Documents\GitHub\robot\Phototest.X\flicker_for_me.asm
         check_threshold2   0x000076    program     static C:\Users\Doge\Documents\GitHub\robot\Phototest.X\flicker_for_me.asm
                 delay5ms   0x0000a1    program     static C:\Users\Doge\Documents\GitHub\robot\Phototest.X\flicker_for_me.asm
                  end_isr   0x0000f7    program     static C:\Users\Doge\Documents\GitHub\robot\Phototest.X\flicker_for_me.asm
                     init   0x000032    program     static C:\Users\Doge\Documents\GitHub\robot\Phototest.X\flicker_for_me.asm
                      isr   0x0000ee    program     static C:\Users\Doge\Documents\GitHub\robot\Phototest.X\flicker_for_me.asm
                    start   0x00004a    program     static C:\Users\Doge\Documents\GitHub\robot\Phototest.X\flicker_for_me.asm
              test_candle   0x000054    program     static C:\Users\Doge\Documents\GitHub\robot\Phototest.X\flicker_for_me.asm
                  waiting   0x000040    program     static C:\Users\Doge\Documents\GitHub\robot\Phototest.X\flicker_for_me.asm



                              Symbols - Sorted by Address
                     Name    Address   Location    Storage File                     
                ---------  ---------  ---------  --------- ---------                
                     Pass   0x000005    program     static C:\Users\Doge\Documents\GitHub\robot\Phototest.X\flicker_for_me.asm
                 LED_fail   0x00000b    program     static C:\Users\Doge\Documents\GitHub\robot\Phototest.X\flicker_for_me.asm
               Flick_fail   0x000015    program     static C:\Users\Doge\Documents\GitHub\robot\Phototest.X\flicker_for_me.asm
              Testing_Msg   0x000023    program     static C:\Users\Doge\Documents\GitHub\robot\Phototest.X\flicker_for_me.asm
                     init   0x000032    program     static C:\Users\Doge\Documents\GitHub\robot\Phototest.X\flicker_for_me.asm
                  waiting   0x000040    program     static C:\Users\Doge\Documents\GitHub\robot\Phototest.X\flicker_for_me.asm
             _.org_1_0048   0x000048    program     static C:\Users\Doge\Documents\GitHub\robot\Phototest.X\flicker_for_me.asm
                    start   0x00004a    program     static C:\Users\Doge\Documents\GitHub\robot\Phototest.X\flicker_for_me.asm
              test_candle   0x000054    program     static C:\Users\Doge\Documents\GitHub\robot\Phototest.X\flicker_for_me.asm
              _5loop_disp   0x000057    program     static C:\Users\Doge\Documents\GitHub\robot\Phototest.X\flicker_for_me.asm
               _5end_disp   0x00005f    program     static C:\Users\Doge\Documents\GitHub\robot\Phototest.X\flicker_for_me.asm
         check_threshold1   0x000066    program     static C:\Users\Doge\Documents\GitHub\robot\Phototest.X\flicker_for_me.asm
              _7loop_disp   0x00006d    program     static C:\Users\Doge\Documents\GitHub\robot\Phototest.X\flicker_for_me.asm
               _7end_disp   0x000075    program     static C:\Users\Doge\Documents\GitHub\robot\Phototest.X\flicker_for_me.asm
         check_threshold2   0x000076    program     static C:\Users\Doge\Documents\GitHub\robot\Phototest.X\flicker_for_me.asm
              _8loop_disp   0x00007d    program     static C:\Users\Doge\Documents\GitHub\robot\Phototest.X\flicker_for_me.asm
               _8end_disp   0x000085    program     static C:\Users\Doge\Documents\GitHub\robot\Phototest.X\flicker_for_me.asm
                aboveboth   0x000086    program     static C:\Users\Doge\Documents\GitHub\robot\Phototest.X\flicker_for_me.asm
              _9loop_disp   0x000089    program     static C:\Users\Doge\Documents\GitHub\robot\Phototest.X\flicker_for_me.asm
               _9end_disp   0x000091    program     static C:\Users\Doge\Documents\GitHub\robot\Phototest.X\flicker_for_me.asm
                    HalfS   0x000092    program     static C:\Users\Doge\Documents\GitHub\robot\Phototest.X\flicker_for_me.asm
                  HalfS_0   0x000098    program     static C:\Users\Doge\Documents\GitHub\robot\Phototest.X\flicker_for_me.asm
             _.org_1_0099   0x000099    program     static C:\Users\Doge\Documents\GitHub\robot\Phototest.X\flicker_for_me.asm
             _.org_1_009B   0x00009b    program     static C:\Users\Doge\Documents\GitHub\robot\Phototest.X\flicker_for_me.asm
             _.org_1_009E   0x00009e    program     static C:\Users\Doge\Documents\GitHub\robot\Phototest.X\flicker_for_me.asm
                 delay5ms   0x0000a1    program     static C:\Users\Doge\Documents\GitHub\robot\Phototest.X\flicker_for_me.asm
                  Delay_0   0x0000a5    program     static C:\Users\Doge\Documents\GitHub\robot\Phototest.X\flicker_for_me.asm
             _.org_1_00A6   0x0000a6    program     static C:\Users\Doge\Documents\GitHub\robot\Phototest.X\flicker_for_me.asm
                  InitLCD   0x0000aa    program     static C:\Users\Doge\Documents\GitHub\robot\Phototest.X\flicker_for_me.asm
            Clear_Display   0x0000c8    program     static C:\Users\Doge\Documents\GitHub\robot\Phototest.X\flicker_for_me.asm
             Switch_Lines   0x0000cb    program     static C:\Users\Doge\Documents\GitHub\robot\Phototest.X\flicker_for_me.asm
                   WR_INS   0x0000ce    program     static C:\Users\Doge\Documents\GitHub\robot\Phototest.X\flicker_for_me.asm
                  WR_DATA   0x0000dd    program     static C:\Users\Doge\Documents\GitHub\robot\Phototest.X\flicker_for_me.asm
                      isr   0x0000ee    program     static C:\Users\Doge\Documents\GitHub\robot\Phototest.X\flicker_for_me.asm
                  end_isr   0x0000f7    program     static C:\Users\Doge\Documents\GitHub\robot\Phototest.X\flicker_for_me.asm


