MPLINK 5.00, LINKER
Linker Map File - Created Mon Feb 03 21:38:50 2014

                                 Section Info
                  Section       Type    Address   Location Size(Bytes)
                ---------  ---------  ---------  ---------  ---------
                   .org_0       code   0x000000    program   0x000002
                   .cinit    romdata   0x000001    program   0x000004
                   .org_1       code   0x000004    program   0x0006f4
.config_2007_BUILD/DEFAULT/PRODUCTION/INTERFA       code   0x002007    program   0x000002



                              Program Memory Usage 
                               Start         End      
                           ---------   ---------      
                            0x000000    0x000002      
                            0x000004    0x00037d      
                            0x002007    0x002007      
            894 out of 8454 program addresses used, program memory utilization is 10%



                              Symbols - Sorted by Name
                     Name    Address   Location    Storage File                     
                ---------  ---------  ---------  --------- ---------                
                  BCDadd3   0x0002e6    program     static C:\Users\Doge\Documents\GitHub\robot\timer.X\interface_w_timer.asm
            Clear_Display   0x000330    program     static C:\Users\Doge\Documents\GitHub\robot\timer.X\interface_w_timer.asm
                Defective   0x000089    program     static C:\Users\Doge\Documents\GitHub\robot\timer.X\interface_w_timer.asm
            Emergency_Msg   0x0000a2    program     static C:\Users\Doge\Documents\GitHub\robot\timer.X\interface_w_timer.asm
                  End_Msg   0x000020    program     static C:\Users\Doge\Documents\GitHub\robot\timer.X\interface_w_timer.asm
               Export_Msg   0x0000b2    program     static C:\Users\Doge\Documents\GitHub\robot\timer.X\interface_w_timer.asm
               Flick_fail   0x000068    program     static C:\Users\Doge\Documents\GitHub\robot\timer.X\interface_w_timer.asm
                    HalfS   0x00035f    program     static C:\Users\Doge\Documents\GitHub\robot\timer.X\interface_w_timer.asm
                  InitLCD   0x000312    program     static C:\Users\Doge\Documents\GitHub\robot\timer.X\interface_w_timer.asm
                 LED_fail   0x00005c    program     static C:\Users\Doge\Documents\GitHub\robot\timer.X\interface_w_timer.asm
                 LLD_LOOP   0x000358    program     static C:\Users\Doge\Documents\GitHub\robot\timer.X\interface_w_timer.asm
                     None   0x000096    program     static C:\Users\Doge\Documents\GitHub\robot\timer.X\interface_w_timer.asm
              Not_present   0x000045    program     static C:\Users\Doge\Documents\GitHub\robot\timer.X\interface_w_timer.asm
                     Pass   0x000054    program     static C:\Users\Doge\Documents\GitHub\robot\timer.X\interface_w_timer.asm
                  Seconds   0x00003b    program     static C:\Users\Doge\Documents\GitHub\robot\timer.X\interface_w_timer.asm
              Standby_Msg   0x000005    program     static C:\Users\Doge\Documents\GitHub\robot\timer.X\interface_w_timer.asm
                Start_Msg   0x00000e    program     static C:\Users\Doge\Documents\GitHub\robot\timer.X\interface_w_timer.asm
             Switch_Lines   0x000333    program     static C:\Users\Doge\Documents\GitHub\robot\timer.X\interface_w_timer.asm
                 Time_Msg   0x00002a    program     static C:\Users\Doge\Documents\GitHub\robot\timer.X\interface_w_timer.asm
                Total_Msg   0x000078    program     static C:\Users\Doge\Documents\GitHub\robot\timer.X\interface_w_timer.asm
                  WR_DATA   0x000345    program     static C:\Users\Doge\Documents\GitHub\robot\timer.X\interface_w_timer.asm
                   WR_INS   0x000336    program     static C:\Users\Doge\Documents\GitHub\robot\timer.X\interface_w_timer.asm
             _.org_1_00DC   0x0000dc    program     static C:\Users\Doge\Documents\GitHub\robot\timer.X\interface_w_timer.asm
             _.org_1_00E3   0x0000e3    program     static C:\Users\Doge\Documents\GitHub\robot\timer.X\interface_w_timer.asm
             _.org_1_013D   0x00013d    program     static C:\Users\Doge\Documents\GitHub\robot\timer.X\interface_w_timer.asm
             _.org_1_0142   0x000142    program     static C:\Users\Doge\Documents\GitHub\robot\timer.X\interface_w_timer.asm
             _.org_1_035B   0x00035b    program     static C:\Users\Doge\Documents\GitHub\robot\timer.X\interface_w_timer.asm
             _.org_1_0366   0x000366    program     static C:\Users\Doge\Documents\GitHub\robot\timer.X\interface_w_timer.asm
             _.org_1_0368   0x000368    program     static C:\Users\Doge\Documents\GitHub\robot\timer.X\interface_w_timer.asm
             _.org_1_036B   0x00036b    program     static C:\Users\Doge\Documents\GitHub\robot\timer.X\interface_w_timer.asm
                _0HalfS_0   0x000365    program     static C:\Users\Doge\Documents\GitHub\robot\timer.X\interface_w_timer.asm
                  _17end_   0x000134    program     static C:\Users\Doge\Documents\GitHub\robot\timer.X\interface_w_timer.asm
                 _17loop_   0x00012c    program     static C:\Users\Doge\Documents\GitHub\robot\timer.X\interface_w_timer.asm
                  _27end_   0x0001dc    program     static C:\Users\Doge\Documents\GitHub\robot\timer.X\interface_w_timer.asm
                 _27loop_   0x0001d4    program     static C:\Users\Doge\Documents\GitHub\robot\timer.X\interface_w_timer.asm
                  _28end_   0x0001ec    program     static C:\Users\Doge\Documents\GitHub\robot\timer.X\interface_w_timer.asm
                 _28loop_   0x0001e4    program     static C:\Users\Doge\Documents\GitHub\robot\timer.X\interface_w_timer.asm
                  _29end_   0x0001fb    program     static C:\Users\Doge\Documents\GitHub\robot\timer.X\interface_w_timer.asm
                 _29loop_   0x0001f3    program     static C:\Users\Doge\Documents\GitHub\robot\timer.X\interface_w_timer.asm
                   _2end_   0x0000db    program     static C:\Users\Doge\Documents\GitHub\robot\timer.X\interface_w_timer.asm
                  _2loop_   0x0000d3    program     static C:\Users\Doge\Documents\GitHub\robot\timer.X\interface_w_timer.asm
                  _30end_   0x00020a    program     static C:\Users\Doge\Documents\GitHub\robot\timer.X\interface_w_timer.asm
                 _30loop_   0x000202    program     static C:\Users\Doge\Documents\GitHub\robot\timer.X\interface_w_timer.asm
                  _31end_   0x000219    program     static C:\Users\Doge\Documents\GitHub\robot\timer.X\interface_w_timer.asm
                 _31loop_   0x000211    program     static C:\Users\Doge\Documents\GitHub\robot\timer.X\interface_w_timer.asm
                  _32end_   0x000226    program     static C:\Users\Doge\Documents\GitHub\robot\timer.X\interface_w_timer.asm
                 _32loop_   0x00021e    program     static C:\Users\Doge\Documents\GitHub\robot\timer.X\interface_w_timer.asm
                  _34end_   0x000235    program     static C:\Users\Doge\Documents\GitHub\robot\timer.X\interface_w_timer.asm
                 _34loop_   0x00022d    program     static C:\Users\Doge\Documents\GitHub\robot\timer.X\interface_w_timer.asm
                  _36end_   0x000245    program     static C:\Users\Doge\Documents\GitHub\robot\timer.X\interface_w_timer.asm
                 _36loop_   0x00023d    program     static C:\Users\Doge\Documents\GitHub\robot\timer.X\interface_w_timer.asm
                  _37end_   0x000253    program     static C:\Users\Doge\Documents\GitHub\robot\timer.X\interface_w_timer.asm
                 _37loop_   0x00024b    program     static C:\Users\Doge\Documents\GitHub\robot\timer.X\interface_w_timer.asm
                  _55end_   0x0002a6    program     static C:\Users\Doge\Documents\GitHub\robot\timer.X\interface_w_timer.asm
                 _55loop_   0x00029e    program     static C:\Users\Doge\Documents\GitHub\robot\timer.X\interface_w_timer.asm
                  _59end_   0x0002c5    program     static C:\Users\Doge\Documents\GitHub\robot\timer.X\interface_w_timer.asm
                 _59loop_   0x0002bd    program     static C:\Users\Doge\Documents\GitHub\robot\timer.X\interface_w_timer.asm
                   _5end_   0x0000fc    program     static C:\Users\Doge\Documents\GitHub\robot\timer.X\interface_w_timer.asm
                  _5loop_   0x0000f4    program     static C:\Users\Doge\Documents\GitHub\robot\timer.X\interface_w_timer.asm
                  _60end_   0x0002d1    program     static C:\Users\Doge\Documents\GitHub\robot\timer.X\interface_w_timer.asm
                 _60loop_   0x0002c9    program     static C:\Users\Doge\Documents\GitHub\robot\timer.X\interface_w_timer.asm
                  _61end_   0x0002de    program     static C:\Users\Doge\Documents\GitHub\robot\timer.X\interface_w_timer.asm
                 _61loop_   0x0002d6    program     static C:\Users\Doge\Documents\GitHub\robot\timer.X\interface_w_timer.asm
                 add3huns   0x000303    program     static C:\Users\Doge\Documents\GitHub\robot\timer.X\interface_w_timer.asm
                 add3ones   0x000309    program     static C:\Users\Doge\Documents\GitHub\robot\timer.X\interface_w_timer.asm
                 add3tens   0x000306    program     static C:\Users\Doge\Documents\GitHub\robot\timer.X\interface_w_timer.asm
               big_number   0x0002df    program     static C:\Users\Doge\Documents\GitHub\robot\timer.X\interface_w_timer.asm
                carryones   0x00030c    program     static C:\Users\Doge\Documents\GitHub\robot\timer.X\interface_w_timer.asm
                carrytens   0x00030f    program     static C:\Users\Doge\Documents\GitHub\robot\timer.X\interface_w_timer.asm
                  check_1   0x000145    program     static C:\Users\Doge\Documents\GitHub\robot\timer.X\interface_w_timer.asm
                  check_2   0x000150    program     static C:\Users\Doge\Documents\GitHub\robot\timer.X\interface_w_timer.asm
                  check_3   0x00015c    program     static C:\Users\Doge\Documents\GitHub\robot\timer.X\interface_w_timer.asm
                  check_4   0x000168    program     static C:\Users\Doge\Documents\GitHub\robot\timer.X\interface_w_timer.asm
                  check_5   0x000174    program     static C:\Users\Doge\Documents\GitHub\robot\timer.X\interface_w_timer.asm
                  check_6   0x000180    program     static C:\Users\Doge\Documents\GitHub\robot\timer.X\interface_w_timer.asm
                  check_7   0x00018c    program     static C:\Users\Doge\Documents\GitHub\robot\timer.X\interface_w_timer.asm
                  check_8   0x000198    program     static C:\Users\Doge\Documents\GitHub\robot\timer.X\interface_w_timer.asm
                  check_9   0x0001a4    program     static C:\Users\Doge\Documents\GitHub\robot\timer.X\interface_w_timer.asm
                check_LED   0x0001fc    program     static C:\Users\Doge\Documents\GitHub\robot\timer.X\interface_w_timer.asm
          check_defective   0x0001b6    program     static C:\Users\Doge\Documents\GitHub\robot\timer.X\interface_w_timer.asm
             check_export   0x0001c2    program     static C:\Users\Doge\Documents\GitHub\robot\timer.X\interface_w_timer.asm
              check_flick   0x00020b    program     static C:\Users\Doge\Documents\GitHub\robot\timer.X\interface_w_timer.asm
               check_none   0x0001df    program     static C:\Users\Doge\Documents\GitHub\robot\timer.X\interface_w_timer.asm
               check_pass   0x0001ed    program     static C:\Users\Doge\Documents\GitHub\robot\timer.X\interface_w_timer.asm
            check_standby   0x0001cd    program     static C:\Users\Doge\Documents\GitHub\robot\timer.X\interface_w_timer.asm
              check_start   0x0001c8    program     static C:\Users\Doge\Documents\GitHub\robot\timer.X\interface_w_timer.asm
            check_summary   0x0001b0    program     static C:\Users\Doge\Documents\GitHub\robot\timer.X\interface_w_timer.asm
               check_time   0x0001bc    program     static C:\Users\Doge\Documents\GitHub\robot\timer.X\interface_w_timer.asm
              default_key   0x0001dd    program     static C:\Users\Doge\Documents\GitHub\robot\timer.X\interface_w_timer.asm
           default_status   0x00021a    program     static C:\Users\Doge\Documents\GitHub\robot\timer.X\interface_w_timer.asm
                defective   0x00023a    program     static C:\Users\Doge\Documents\GitHub\robot\timer.X\interface_w_timer.asm
           display_status   0x0001de    program     static C:\Users\Doge\Documents\GitHub\robot\timer.X\interface_w_timer.asm
                    eight   0x00028c    program     static C:\Users\Doge\Documents\GitHub\robot\timer.X\interface_w_timer.asm
            end_defective   0x00029a    program     static C:\Users\Doge\Documents\GitHub\robot\timer.X\interface_w_timer.asm
                  end_isr   0x000378    program     static C:\Users\Doge\Documents\GitHub\robot\timer.X\interface_w_timer.asm
                   export   0x0002c6    program     static C:\Users\Doge\Documents\GitHub\robot\timer.X\interface_w_timer.asm
                     five   0x000274    program     static C:\Users\Doge\Documents\GitHub\robot\timer.X\interface_w_timer.asm
                     four   0x00026c    program     static C:\Users\Doge\Documents\GitHub\robot\timer.X\interface_w_timer.asm
              information   0x000144    program     static C:\Users\Doge\Documents\GitHub\robot\timer.X\interface_w_timer.asm
                     init   0x0000c3    program     static C:\Users\Doge\Documents\GitHub\robot\timer.X\interface_w_timer.asm
                      isr   0x00036f    program     static C:\Users\Doge\Documents\GitHub\robot\timer.X\interface_w_timer.asm
             lcdLongDelay   0x000356    program     static C:\Users\Doge\Documents\GitHub\robot\timer.X\interface_w_timer.asm
                     nine   0x000294    program     static C:\Users\Doge\Documents\GitHub\robot\timer.X\interface_w_timer.asm
                  no_huns   0x0002b0    program     static C:\Users\Doge\Documents\GitHub\robot\timer.X\interface_w_timer.asm
                  no_tens   0x0002b7    program     static C:\Users\Doge\Documents\GitHub\robot\timer.X\interface_w_timer.asm
                      one   0x000254    program     static C:\Users\Doge\Documents\GitHub\robot\timer.X\interface_w_timer.asm
                     poll   0x00013c    program     static C:\Users\Doge\Documents\GitHub\robot\timer.X\interface_w_timer.asm
                    seven   0x000284    program     static C:\Users\Doge\Documents\GitHub\robot\timer.X\interface_w_timer.asm
                      six   0x00027c    program     static C:\Users\Doge\Documents\GitHub\robot\timer.X\interface_w_timer.asm
                    start   0x0000e5    program     static C:\Users\Doge\Documents\GitHub\robot\timer.X\interface_w_timer.asm
                  summary   0x00021b    program     static C:\Users\Doge\Documents\GitHub\robot\timer.X\interface_w_timer.asm
                    three   0x000264    program     static C:\Users\Doge\Documents\GitHub\robot\timer.X\interface_w_timer.asm
                     time   0x00029b    program     static C:\Users\Doge\Documents\GitHub\robot\timer.X\interface_w_timer.asm
                      two   0x00025c    program     static C:\Users\Doge\Documents\GitHub\robot\timer.X\interface_w_timer.asm
                  waiting   0x0000db    program     static C:\Users\Doge\Documents\GitHub\robot\timer.X\interface_w_timer.asm



                              Symbols - Sorted by Address
                     Name    Address   Location    Storage File                     
                ---------  ---------  ---------  --------- ---------                
              Standby_Msg   0x000005    program     static C:\Users\Doge\Documents\GitHub\robot\timer.X\interface_w_timer.asm
                Start_Msg   0x00000e    program     static C:\Users\Doge\Documents\GitHub\robot\timer.X\interface_w_timer.asm
                  End_Msg   0x000020    program     static C:\Users\Doge\Documents\GitHub\robot\timer.X\interface_w_timer.asm
                 Time_Msg   0x00002a    program     static C:\Users\Doge\Documents\GitHub\robot\timer.X\interface_w_timer.asm
                  Seconds   0x00003b    program     static C:\Users\Doge\Documents\GitHub\robot\timer.X\interface_w_timer.asm
              Not_present   0x000045    program     static C:\Users\Doge\Documents\GitHub\robot\timer.X\interface_w_timer.asm
                     Pass   0x000054    program     static C:\Users\Doge\Documents\GitHub\robot\timer.X\interface_w_timer.asm
                 LED_fail   0x00005c    program     static C:\Users\Doge\Documents\GitHub\robot\timer.X\interface_w_timer.asm
               Flick_fail   0x000068    program     static C:\Users\Doge\Documents\GitHub\robot\timer.X\interface_w_timer.asm
                Total_Msg   0x000078    program     static C:\Users\Doge\Documents\GitHub\robot\timer.X\interface_w_timer.asm
                Defective   0x000089    program     static C:\Users\Doge\Documents\GitHub\robot\timer.X\interface_w_timer.asm
                     None   0x000096    program     static C:\Users\Doge\Documents\GitHub\robot\timer.X\interface_w_timer.asm
            Emergency_Msg   0x0000a2    program     static C:\Users\Doge\Documents\GitHub\robot\timer.X\interface_w_timer.asm
               Export_Msg   0x0000b2    program     static C:\Users\Doge\Documents\GitHub\robot\timer.X\interface_w_timer.asm
                     init   0x0000c3    program     static C:\Users\Doge\Documents\GitHub\robot\timer.X\interface_w_timer.asm
                  _2loop_   0x0000d3    program     static C:\Users\Doge\Documents\GitHub\robot\timer.X\interface_w_timer.asm
                   _2end_   0x0000db    program     static C:\Users\Doge\Documents\GitHub\robot\timer.X\interface_w_timer.asm
                  waiting   0x0000db    program     static C:\Users\Doge\Documents\GitHub\robot\timer.X\interface_w_timer.asm
             _.org_1_00DC   0x0000dc    program     static C:\Users\Doge\Documents\GitHub\robot\timer.X\interface_w_timer.asm
             _.org_1_00E3   0x0000e3    program     static C:\Users\Doge\Documents\GitHub\robot\timer.X\interface_w_timer.asm
                    start   0x0000e5    program     static C:\Users\Doge\Documents\GitHub\robot\timer.X\interface_w_timer.asm
                  _5loop_   0x0000f4    program     static C:\Users\Doge\Documents\GitHub\robot\timer.X\interface_w_timer.asm
                   _5end_   0x0000fc    program     static C:\Users\Doge\Documents\GitHub\robot\timer.X\interface_w_timer.asm
                 _17loop_   0x00012c    program     static C:\Users\Doge\Documents\GitHub\robot\timer.X\interface_w_timer.asm
                  _17end_   0x000134    program     static C:\Users\Doge\Documents\GitHub\robot\timer.X\interface_w_timer.asm
                     poll   0x00013c    program     static C:\Users\Doge\Documents\GitHub\robot\timer.X\interface_w_timer.asm
             _.org_1_013D   0x00013d    program     static C:\Users\Doge\Documents\GitHub\robot\timer.X\interface_w_timer.asm
             _.org_1_0142   0x000142    program     static C:\Users\Doge\Documents\GitHub\robot\timer.X\interface_w_timer.asm
              information   0x000144    program     static C:\Users\Doge\Documents\GitHub\robot\timer.X\interface_w_timer.asm
                  check_1   0x000145    program     static C:\Users\Doge\Documents\GitHub\robot\timer.X\interface_w_timer.asm
                  check_2   0x000150    program     static C:\Users\Doge\Documents\GitHub\robot\timer.X\interface_w_timer.asm
                  check_3   0x00015c    program     static C:\Users\Doge\Documents\GitHub\robot\timer.X\interface_w_timer.asm
                  check_4   0x000168    program     static C:\Users\Doge\Documents\GitHub\robot\timer.X\interface_w_timer.asm
                  check_5   0x000174    program     static C:\Users\Doge\Documents\GitHub\robot\timer.X\interface_w_timer.asm
                  check_6   0x000180    program     static C:\Users\Doge\Documents\GitHub\robot\timer.X\interface_w_timer.asm
                  check_7   0x00018c    program     static C:\Users\Doge\Documents\GitHub\robot\timer.X\interface_w_timer.asm
                  check_8   0x000198    program     static C:\Users\Doge\Documents\GitHub\robot\timer.X\interface_w_timer.asm
                  check_9   0x0001a4    program     static C:\Users\Doge\Documents\GitHub\robot\timer.X\interface_w_timer.asm
            check_summary   0x0001b0    program     static C:\Users\Doge\Documents\GitHub\robot\timer.X\interface_w_timer.asm
          check_defective   0x0001b6    program     static C:\Users\Doge\Documents\GitHub\robot\timer.X\interface_w_timer.asm
               check_time   0x0001bc    program     static C:\Users\Doge\Documents\GitHub\robot\timer.X\interface_w_timer.asm
             check_export   0x0001c2    program     static C:\Users\Doge\Documents\GitHub\robot\timer.X\interface_w_timer.asm
              check_start   0x0001c8    program     static C:\Users\Doge\Documents\GitHub\robot\timer.X\interface_w_timer.asm
            check_standby   0x0001cd    program     static C:\Users\Doge\Documents\GitHub\robot\timer.X\interface_w_timer.asm
                 _27loop_   0x0001d4    program     static C:\Users\Doge\Documents\GitHub\robot\timer.X\interface_w_timer.asm
                  _27end_   0x0001dc    program     static C:\Users\Doge\Documents\GitHub\robot\timer.X\interface_w_timer.asm
              default_key   0x0001dd    program     static C:\Users\Doge\Documents\GitHub\robot\timer.X\interface_w_timer.asm
           display_status   0x0001de    program     static C:\Users\Doge\Documents\GitHub\robot\timer.X\interface_w_timer.asm
               check_none   0x0001df    program     static C:\Users\Doge\Documents\GitHub\robot\timer.X\interface_w_timer.asm
                 _28loop_   0x0001e4    program     static C:\Users\Doge\Documents\GitHub\robot\timer.X\interface_w_timer.asm
                  _28end_   0x0001ec    program     static C:\Users\Doge\Documents\GitHub\robot\timer.X\interface_w_timer.asm
               check_pass   0x0001ed    program     static C:\Users\Doge\Documents\GitHub\robot\timer.X\interface_w_timer.asm
                 _29loop_   0x0001f3    program     static C:\Users\Doge\Documents\GitHub\robot\timer.X\interface_w_timer.asm
                  _29end_   0x0001fb    program     static C:\Users\Doge\Documents\GitHub\robot\timer.X\interface_w_timer.asm
                check_LED   0x0001fc    program     static C:\Users\Doge\Documents\GitHub\robot\timer.X\interface_w_timer.asm
                 _30loop_   0x000202    program     static C:\Users\Doge\Documents\GitHub\robot\timer.X\interface_w_timer.asm
                  _30end_   0x00020a    program     static C:\Users\Doge\Documents\GitHub\robot\timer.X\interface_w_timer.asm
              check_flick   0x00020b    program     static C:\Users\Doge\Documents\GitHub\robot\timer.X\interface_w_timer.asm
                 _31loop_   0x000211    program     static C:\Users\Doge\Documents\GitHub\robot\timer.X\interface_w_timer.asm
                  _31end_   0x000219    program     static C:\Users\Doge\Documents\GitHub\robot\timer.X\interface_w_timer.asm
           default_status   0x00021a    program     static C:\Users\Doge\Documents\GitHub\robot\timer.X\interface_w_timer.asm
                  summary   0x00021b    program     static C:\Users\Doge\Documents\GitHub\robot\timer.X\interface_w_timer.asm
                 _32loop_   0x00021e    program     static C:\Users\Doge\Documents\GitHub\robot\timer.X\interface_w_timer.asm
                  _32end_   0x000226    program     static C:\Users\Doge\Documents\GitHub\robot\timer.X\interface_w_timer.asm
                 _34loop_   0x00022d    program     static C:\Users\Doge\Documents\GitHub\robot\timer.X\interface_w_timer.asm
                  _34end_   0x000235    program     static C:\Users\Doge\Documents\GitHub\robot\timer.X\interface_w_timer.asm
                defective   0x00023a    program     static C:\Users\Doge\Documents\GitHub\robot\timer.X\interface_w_timer.asm
                 _36loop_   0x00023d    program     static C:\Users\Doge\Documents\GitHub\robot\timer.X\interface_w_timer.asm
                  _36end_   0x000245    program     static C:\Users\Doge\Documents\GitHub\robot\timer.X\interface_w_timer.asm
                 _37loop_   0x00024b    program     static C:\Users\Doge\Documents\GitHub\robot\timer.X\interface_w_timer.asm
                  _37end_   0x000253    program     static C:\Users\Doge\Documents\GitHub\robot\timer.X\interface_w_timer.asm
                      one   0x000254    program     static C:\Users\Doge\Documents\GitHub\robot\timer.X\interface_w_timer.asm
                      two   0x00025c    program     static C:\Users\Doge\Documents\GitHub\robot\timer.X\interface_w_timer.asm
                    three   0x000264    program     static C:\Users\Doge\Documents\GitHub\robot\timer.X\interface_w_timer.asm
                     four   0x00026c    program     static C:\Users\Doge\Documents\GitHub\robot\timer.X\interface_w_timer.asm
                     five   0x000274    program     static C:\Users\Doge\Documents\GitHub\robot\timer.X\interface_w_timer.asm
                      six   0x00027c    program     static C:\Users\Doge\Documents\GitHub\robot\timer.X\interface_w_timer.asm
                    seven   0x000284    program     static C:\Users\Doge\Documents\GitHub\robot\timer.X\interface_w_timer.asm
                    eight   0x00028c    program     static C:\Users\Doge\Documents\GitHub\robot\timer.X\interface_w_timer.asm
                     nine   0x000294    program     static C:\Users\Doge\Documents\GitHub\robot\timer.X\interface_w_timer.asm
            end_defective   0x00029a    program     static C:\Users\Doge\Documents\GitHub\robot\timer.X\interface_w_timer.asm
                     time   0x00029b    program     static C:\Users\Doge\Documents\GitHub\robot\timer.X\interface_w_timer.asm
                 _55loop_   0x00029e    program     static C:\Users\Doge\Documents\GitHub\robot\timer.X\interface_w_timer.asm
                  _55end_   0x0002a6    program     static C:\Users\Doge\Documents\GitHub\robot\timer.X\interface_w_timer.asm
                  no_huns   0x0002b0    program     static C:\Users\Doge\Documents\GitHub\robot\timer.X\interface_w_timer.asm
                  no_tens   0x0002b7    program     static C:\Users\Doge\Documents\GitHub\robot\timer.X\interface_w_timer.asm
                 _59loop_   0x0002bd    program     static C:\Users\Doge\Documents\GitHub\robot\timer.X\interface_w_timer.asm
                  _59end_   0x0002c5    program     static C:\Users\Doge\Documents\GitHub\robot\timer.X\interface_w_timer.asm
                   export   0x0002c6    program     static C:\Users\Doge\Documents\GitHub\robot\timer.X\interface_w_timer.asm
                 _60loop_   0x0002c9    program     static C:\Users\Doge\Documents\GitHub\robot\timer.X\interface_w_timer.asm
                  _60end_   0x0002d1    program     static C:\Users\Doge\Documents\GitHub\robot\timer.X\interface_w_timer.asm
                 _61loop_   0x0002d6    program     static C:\Users\Doge\Documents\GitHub\robot\timer.X\interface_w_timer.asm
                  _61end_   0x0002de    program     static C:\Users\Doge\Documents\GitHub\robot\timer.X\interface_w_timer.asm
               big_number   0x0002df    program     static C:\Users\Doge\Documents\GitHub\robot\timer.X\interface_w_timer.asm
                  BCDadd3   0x0002e6    program     static C:\Users\Doge\Documents\GitHub\robot\timer.X\interface_w_timer.asm
                 add3huns   0x000303    program     static C:\Users\Doge\Documents\GitHub\robot\timer.X\interface_w_timer.asm
                 add3tens   0x000306    program     static C:\Users\Doge\Documents\GitHub\robot\timer.X\interface_w_timer.asm
                 add3ones   0x000309    program     static C:\Users\Doge\Documents\GitHub\robot\timer.X\interface_w_timer.asm
                carryones   0x00030c    program     static C:\Users\Doge\Documents\GitHub\robot\timer.X\interface_w_timer.asm
                carrytens   0x00030f    program     static C:\Users\Doge\Documents\GitHub\robot\timer.X\interface_w_timer.asm
                  InitLCD   0x000312    program     static C:\Users\Doge\Documents\GitHub\robot\timer.X\interface_w_timer.asm
            Clear_Display   0x000330    program     static C:\Users\Doge\Documents\GitHub\robot\timer.X\interface_w_timer.asm
             Switch_Lines   0x000333    program     static C:\Users\Doge\Documents\GitHub\robot\timer.X\interface_w_timer.asm
                   WR_INS   0x000336    program     static C:\Users\Doge\Documents\GitHub\robot\timer.X\interface_w_timer.asm
                  WR_DATA   0x000345    program     static C:\Users\Doge\Documents\GitHub\robot\timer.X\interface_w_timer.asm
             lcdLongDelay   0x000356    program     static C:\Users\Doge\Documents\GitHub\robot\timer.X\interface_w_timer.asm
                 LLD_LOOP   0x000358    program     static C:\Users\Doge\Documents\GitHub\robot\timer.X\interface_w_timer.asm
             _.org_1_035B   0x00035b    program     static C:\Users\Doge\Documents\GitHub\robot\timer.X\interface_w_timer.asm
                    HalfS   0x00035f    program     static C:\Users\Doge\Documents\GitHub\robot\timer.X\interface_w_timer.asm
                _0HalfS_0   0x000365    program     static C:\Users\Doge\Documents\GitHub\robot\timer.X\interface_w_timer.asm
             _.org_1_0366   0x000366    program     static C:\Users\Doge\Documents\GitHub\robot\timer.X\interface_w_timer.asm
             _.org_1_0368   0x000368    program     static C:\Users\Doge\Documents\GitHub\robot\timer.X\interface_w_timer.asm
             _.org_1_036B   0x00036b    program     static C:\Users\Doge\Documents\GitHub\robot\timer.X\interface_w_timer.asm
                      isr   0x00036f    program     static C:\Users\Doge\Documents\GitHub\robot\timer.X\interface_w_timer.asm
                  end_isr   0x000378    program     static C:\Users\Doge\Documents\GitHub\robot\timer.X\interface_w_timer.asm


