MPASM 5.55                 SPIN_ME_ROUND.ASM   3-11-2014  14:47:49         PAGE  1


LOC  OBJECT CODE     LINE SOURCE TEXT
  VALUE

                      00001 ;Test for motor controlled by L298N. 
                      00002 ;Want to rotate 36deg = 20 steps
                      00003 ;Excitation sequence is 1-2-3-4 (four steps) controlled by RA[3:0]
                      00004 ;   1 = 1001
                      00005 ;   2 = 1010
                      00006 ;   3 = 0110
                      00007 ;   4 = 0101
                      00008 ;http://duvindu92.blogspot.ca/2013/07/driving-bipolar-stepper-motor-with.html
                      00009 ; Also scans RE0 (IRDATA). If it's ever 1 (because candle passed by it), saves that the candle is presen
                            t via a 1 in present,0
                      00010 
                      00011  list p=16f877
                      00012       #include <p16f877.inc>
                      00001         LIST
                      00002 
                      00003 ;==========================================================================
                      00004 ;  MPASM PIC16F877 processor include
                      00005 ; 
                      00006 ;  (c) Copyright 1999-2014 Microchip Technology, All rights reserved
                      00007 ;==========================================================================
                      00008 
                      00540         LIST
2007   3F72           00013       __CONFIG _CP_OFF & _WDT_OFF & _BODEN_ON & _PWRTE_ON & _HS_OSC & _WRT_ENABLE_ON & _CPD_OFF & _LVP_O
                            FF
                      00014 
                      00015     #define     RS      PORTD,2
                      00016         #define E       PORTD,3
                      00017     #define IRDATA     PORTE, 0
                      00018 
                      00019     cblock  0x70
  00000070            00020         del1
  00000071            00021         del2
  00000072            00022         delH
  00000073            00023         delM
  00000074            00024         delL
  00000075            00025         Table_Counter
                      00026 ;        start_step
                      00027 ;        step_count
                      00028 ;        step_max
  00000076            00029         motor_count
  00000077            00030         dat
  00000078            00031         com
  00000079            00032         present
                      00033     endc
                      00034 
                      00035 movlf   macro   l, f
                      00036         movlw   l
                      00037         movwf   f
                      00038         endm
                      00039 
                      00040 writeBCD    macro   reg         ; from a register containing BCD
                      00041             movf    reg, W
                      00042             addlw   B'00110000'
MPASM 5.55                 SPIN_ME_ROUND.ASM   3-11-2014  14:47:49         PAGE  2


LOC  OBJECT CODE     LINE SOURCE TEXT
  VALUE

                      00043             call WR_DATA
                      00044             endm
                      00045 
                      00046 Display macro   Message
                      00047                 local   loop_disp
                      00048                 local   end_disp
                      00049                 clrf    Table_Counter
                      00050                 clrw
                      00051 loop_disp
                      00052         movf    Table_Counter,W
                      00053                 call    Message
                      00054                 xorlw   B'00000000' ;check WORK reg to see if 0 is returned
                      00055                 btfsc   STATUS,Z
                      00056                 goto    end_disp
                      00057                 call    WR_DATA
                      00058                 incf    Table_Counter,F
                      00059                 goto    loop_disp
                      00060 end_disp
                      00061                 endm
                      00062 
                      00063     ORG       0x000
0000   2???           00064     goto      main
                      00065     ORG       0x004
0004   0009           00066     retfie
                      00067 
0005                  00068 Candle_Msg
0005   0782           00069                 addwf   PCL,F
0006   3459 3465 3473 00070                 dt              "Yes candle", 0
       3420 3463 3461 
       346E 3464 346C 
       3465 3400 
0011                  00071 No_Candle_Msg
0011   0782           00072         addwf   PCL,F
0012   344E 346F 3420 00073         dt      "No candle",0
       3463 3461 346E 
       3464 346C 3465 
       3400 
                      00074 
001C                  00075 main
001C   018B           00076     clrf        INTCON
001D   1683 1303      00077     banksel     TRISA
Message[302]: Register in operand not in bank 0.  Ensure that bank bits are correct.
001F   0185           00078     clrf        TRISA
                      00079     movlf       b'11110010', TRISB
0020   30F2               M         movlw   b'11110010'
Message[302]: Register in operand not in bank 0.  Ensure that bank bits are correct.
0021   0086               M         movwf   TRISB
Message[302]: Register in operand not in bank 0.  Ensure that bank bits are correct.
0022   0188           00080     clrf        TRISD
                      00081     movlf      b'001', TRISE         ; IRDATA is RE0
0023   3001               M         movlw   b'001'
Message[302]: Register in operand not in bank 0.  Ensure that bank bits are correct.
0024   0089               M         movwf   TRISE
MPASM 5.55                 SPIN_ME_ROUND.ASM   3-11-2014  14:47:49         PAGE  3


LOC  OBJECT CODE     LINE SOURCE TEXT
  VALUE

                      00082     movlf       0x07, ADCON1
0025   3007               M         movlw   0x07
Message[302]: Register in operand not in bank 0.  Ensure that bank bits are correct.
0026   009F               M         movwf   ADCON1
0027   1283 1303      00083     banksel     PORTA
0029   0185           00084     clrf        PORTA
002A   0186           00085     clrf        PORTB
002B   0188           00086     clrf        PORTD
002C   0189           00087     clrf        PORTE
002D   2???           00088     call        InitLCD
                      00089 ;    movlf       d'1', start_step
                      00090 ;    movlf       d'15', step_max
                      00091 
002E                  00092 waiting
002E   1C86           00093          btfss          PORTB,1     ;Wait until data is available from the keypad
002F   2???           00094          goto           waiting
                      00095 
0030   0E06           00096          swapf          PORTB,W     ;Read PortB<7:4> into W<3:0>
0031   390F           00097          andlw          0x0F
0032   3A0C           00098          xorlw      0xC         ;Will be all zeros if its "START"
0033   1903           00099          btfsc      STATUS,Z    ;and Z will be high, so skip if not high
0034   2???           00100          call       ROTATEMOTOR
                      00101 
0035   1886           00102          btfsc          PORTB,1     ;Wait until key is released
0036   2???           00103          goto           $-1
0037   2???           00104          goto       waiting
                      00105 
0038                  00106 ROTATEMOTOR
0038   2???           00107     call    Clear_Display
0039   1079           00108     bcf     present, 0
                      00109     movlf   d'5', motor_count
003A   3005               M         movlw   d'5'
003B   00F6               M         movwf   motor_count
003C                  00110 start_rot
                      00111     movlf   b'1001', PORTA
003C   3009               M         movlw   b'1001'
003D   0085               M         movwf   PORTA
003E   2???           00112     call    motor_del
                      00113     movlf   b'1000', PORTA
003F   3008               M         movlw   b'1000'
0040   0085               M         movwf   PORTA
0041   2???           00114     call    motor_del
                      00115     movlf   b'1010', PORTA
0042   300A               M         movlw   b'1010'
0043   0085               M         movwf   PORTA
0044   2???           00116     call    motor_del
                      00117     movlf   b'0010', PORTA
0045   3002               M         movlw   b'0010'
0046   0085               M         movwf   PORTA
0047   2???           00118     call    motor_del
                      00119     movlf   b'0110', PORTA
0048   3006               M         movlw   b'0110'
0049   0085               M         movwf   PORTA
MPASM 5.55                 SPIN_ME_ROUND.ASM   3-11-2014  14:47:49         PAGE  4


LOC  OBJECT CODE     LINE SOURCE TEXT
  VALUE

004A   2???           00120     call    motor_del
                      00121     movlf   b'0100', PORTA
004B   3004               M         movlw   b'0100'
004C   0085               M         movwf   PORTA
004D   2???           00122     call    motor_del
                      00123     movlf   b'0101', PORTA
004E   3005               M         movlw   b'0101'
004F   0085               M         movwf   PORTA
0050   2???           00124     call    motor_del
                      00125     movlf   b'0001', PORTA
0051   3001               M         movlw   b'0001'
0052   0085               M         movwf   PORTA
0053   2???           00126     call    motor_del
                      00127 
Message[305]: Using default destination of 1 (file).
0054   0BF6           00128     decfsz  motor_count
0055   2???           00129     goto    start_rot
0056   0185           00130     clrf    PORTA
0057   1879           00131     btfsc   present, 0
0058   2???           00132     goto    yes_candle
0059                  00133 no_candle
                      00134     Display No_Candle_Msg
  0000                    M                 local   loop_disp
  0000                    M                 local   end_disp
0059   01F5               M                 clrf    Table_Counter
005A   0103               M                 clrw
005B                      M loop_disp
005B   0875               M         movf    Table_Counter,W
005C   2???               M                 call    No_Candle_Msg
005D   3A00               M                 xorlw   B'00000000' ;check WORK reg to see if 0 is returned
005E   1903               M                 btfsc   STATUS,Z
005F   2???               M                 goto    end_disp
0060   2???               M                 call    WR_DATA
0061   0AF5               M                 incf    Table_Counter,F
0062   2???               M                 goto    loop_disp
0063                      M end_disp
0063   0008           00135     return
0064                  00136 yes_candle
                      00137     Display Candle_Msg
  0000                    M                 local   loop_disp
  0000                    M                 local   end_disp
0064   01F5               M                 clrf    Table_Counter
0065   0103               M                 clrw
0066                      M loop_disp
0066   0875               M         movf    Table_Counter,W
0067   2???               M                 call    Candle_Msg
0068   3A00               M                 xorlw   B'00000000' ;check WORK reg to see if 0 is returned
0069   1903               M                 btfsc   STATUS,Z
006A   2???               M                 goto    end_disp
006B   2???               M                 call    WR_DATA
006C   0AF5               M                 incf    Table_Counter,F
006D   2???               M                 goto    loop_disp
006E                      M end_disp
MPASM 5.55                 SPIN_ME_ROUND.ASM   3-11-2014  14:47:49         PAGE  5


LOC  OBJECT CODE     LINE SOURCE TEXT
  VALUE

006E   0008           00138     return
                      00139 
                      00140 ;    call    Clear_Display
                      00141 ;    writeBCD    step_max
                      00142 ;    writeBCD    start_step
                      00143 ;
                      00144 ;    clrf    step_count
                      00145 ;
                      00146 ;    ;go to the right starting step
                      00147 ;    movlw   d'1'
                      00148 ;    subwf   start_step, W
                      00149 ;    btfsc   STATUS,Z
                      00150 ;    goto    firststep
                      00151 ;
                      00152 ;    movlw   d'2'
                      00153 ;    subwf   start_step, W
                      00154 ;    btfsc   STATUS,Z
                      00155 ;    goto    secondstep
                      00156 ;
                      00157 ;    movlw   d'3'
                      00158 ;    subwf   start_step, W
                      00159 ;    btfsc   STATUS,Z
                      00160 ;    goto    thirdstep
                      00161 ;
                      00162 ;    movlw   d'4'
                      00163 ;    subwf   start_step, W
                      00164 ;    btfsc   STATUS,Z
                      00165 ;    goto    fourthstep
                      00166 ;
                      00167 ;four_steps
                      00168 ;
                      00169 ;firststep
                      00170 ;    movf    step_max, W
                      00171 ;    subwf   step_count, W
                      00172 ;    btfss   STATUS, Z
                      00173 ;    goto    pulse1
                      00174 ;    movlf   d'1', start_step
                      00175 ;    goto    end_rotate
                      00176 ;pulse1
                      00177 ;    movlf   B'1001', PORTA
                      00178 ;    call    motor_del
                      00179 ;    incf    step_count, F
                      00180 ;
                      00181 ;secondstep
                      00182 ;    movf    step_max, W
                      00183 ;    subwf   step_count, W
                      00184 ;    btfss   STATUS, Z
                      00185 ;    goto    pulse2
                      00186 ;    movlf   d'2', start_step
                      00187 ;    goto    end_rotate
                      00188 ;pulse2
                      00189 ;    movlf   B'1010', PORTA
                      00190 ;    call    motor_del
MPASM 5.55                 SPIN_ME_ROUND.ASM   3-11-2014  14:47:49         PAGE  6


LOC  OBJECT CODE     LINE SOURCE TEXT
  VALUE

                      00191 ;    incf    step_count, F
                      00192 ;
                      00193 ;thirdstep
                      00194 ;    movf    step_max, W
                      00195 ;    subwf   step_count, W
                      00196 ;    btfss   STATUS, Z
                      00197 ;    goto    pulse3
                      00198 ;    movlf   d'3', start_step
                      00199 ;    goto    end_rotate
                      00200 ;pulse3
                      00201 ;    movlf   B'0110', PORTA
                      00202 ;    call    motor_del
                      00203 ;    incf    step_count, F
                      00204 ;
                      00205 ;fourthstep
                      00206 ;    movf    step_max, W
                      00207 ;    subwf   step_count, W
                      00208 ;    btfss   STATUS, Z
                      00209 ;    goto    pulse4
                      00210 ;    movlf   d'4', start_step
                      00211 ;    goto    end_rotate
                      00212 ;pulse4
                      00213 ;    movlf   B'0101', PORTA
                      00214 ;    call    motor_del
                      00215 ;    incf    step_count, F
                      00216 ;
                      00217 ;    goto    four_steps
                      00218 ;
                      00219 ;end_rotate
                      00220 ;   ;if step_max is 15 incr, 16 dec
                      00221 ;    clrf    PORTA
                      00222 ;    movlw    d'16'
                      00223 ;    subwf   step_max, W
                      00224 ;    btfss   STATUS,Z
                      00225 ;    goto    must_inc
                      00226 ;must_dec
                      00227 ;    decf    step_max, F
                      00228 ;    return
                      00229 ;must_inc
                      00230 ;    incf     step_max, F
                      00231 ;    return
                      00232 
                      00233 
                      00234 
006F                  00235 motor_del
                      00236       movlf 0xF3, delH
006F   30F3               M         movlw   0xF3
0070   00F2               M         movwf   delH
                      00237       movlf 0x2F, delL
0071   302F               M         movlw   0x2F
0072   00F4               M         movwf   delL
0073                  00238 motor_del_0
0073   1809           00239       btfsc     IRDATA
MPASM 5.55                 SPIN_ME_ROUND.ASM   3-11-2014  14:47:49         PAGE  7


LOC  OBJECT CODE     LINE SOURCE TEXT
  VALUE

0074   1479           00240       bsf       present, 0
0075   0BF2           00241       decfsz    delH, F
0076   2???           00242           goto      $+2
0077   0BF4           00243           decfsz        delL, F
0078   2???           00244           goto      motor_del_0
0079   0008           00245           return
                      00246 
                      00247 
007A                  00248 delay5ms
                      00249         movlf   0xC3, delH
007A   30C3               M         movlw   0xC3
007B   00F2               M         movwf   delH
                      00250         movlf   0x0A, delL
007C   300A               M         movlw   0x0A
007D   00F4               M         movwf   delL
007E                  00251 Delay_0
007E   0BF2           00252         decfsz  delH, f
007F   2???           00253         goto    $+2
0080   0BF4           00254         decfsz  delL, f
0081   2???           00255         goto    Delay_0
0082   0008           00256     return
                      00257 
0083                  00258 HalfS
                      00259       movlf 0x8A, delH
0083   308A               M         movlw   0x8A
0084   00F2               M         movwf   delH
                      00260       movlf 0xBA, delM
0085   30BA               M         movlw   0xBA
0086   00F3               M         movwf   delM
                      00261       movlf 0x03, delL
0087   3003               M         movlw   0x03
0088   00F4               M         movwf   delL
0089                  00262 HalfS_0
0089   0BF2           00263       decfsz    delH, F
008A   2???           00264           goto  $+2
008B   0BF3           00265           decfsz        delM, F
008C   2???           00266           goto  $+2
008D   0BF4           00267           decfsz        delL, F
008E   2???           00268           goto  HalfS_0
                      00269 
008F   2???           00270           goto  $+1
0090   0000           00271           nop
0091   0008           00272           return
                      00273 
                      00274 
                      00275 ; Initialize the LCD
0092                  00276 InitLCD
0092   1283           00277         bcf STATUS,RP0
0093   1588           00278         bsf E     ;E default high
                      00279 
                      00280         ;Wait for LCD POR to finish (~15ms)
0094   2???           00281         call delay5ms
0095   2???           00282         call delay5ms
MPASM 5.55                 SPIN_ME_ROUND.ASM   3-11-2014  14:47:49         PAGE  8


LOC  OBJECT CODE     LINE SOURCE TEXT
  VALUE

0096   2???           00283         call delay5ms
                      00284 
                      00285         ;Ensure 8-bit mode first (no way to immediately guarantee 4-bit mode)
                      00286         ; -> Send b'0011' 3 times
0097   3033           00287         movlw   b'00110011'
0098   2???           00288         call    WR_INS
0099   2???           00289         call delay5ms
009A   2???           00290         call delay5ms
009B   3032           00291         movlw   b'00110010'
009C   2???           00292         call    WR_INS
009D   2???           00293         call delay5ms
009E   2???           00294         call delay5ms
                      00295 
                      00296         ; 4 bits, 2 lines, 5x7 dots
009F   3028           00297         movlw   b'00101000'
00A0   2???           00298         call    WR_INS
00A1   2???           00299         call delay5ms
00A2   2???           00300         call delay5ms
                      00301 
                      00302         ; display on/off
00A3   300C           00303         movlw   b'00001100'
00A4   2???           00304         call    WR_INS
00A5   2???           00305         call delay5ms
00A6   2???           00306         call delay5ms
                      00307 
                      00308         ; Entry mode
00A7   3006           00309         movlw   b'00000110'
00A8   2???           00310         call    WR_INS
00A9   2???           00311         call delay5ms
00AA   2???           00312         call delay5ms
                      00313 
                      00314         ; Clear ram
00AB   3001           00315         movlw   b'00000001'
00AC   2???           00316         call    WR_INS
00AD   2???           00317         call delay5ms
00AE   2???           00318         call delay5ms
00AF   0008           00319         return
                      00320 
                      00321 ; Clear the display
00B0                  00322 Clear_Display
00B0   3001           00323                 movlw   B'00000001'
00B1   2???           00324                 call    WR_INS
00B2   0008           00325                 return
                      00326 
                      00327 ;Switch lines
00B3                  00328 Switch_Lines
00B3   30C0           00329                 movlw   B'11000000'
00B4   2???           00330                 call    WR_INS
00B5   0008           00331                 return
                      00332 
                      00333 ; Write an instruction to the LCD (see page 7-104)
                      00334 ; The instruction must be in W
00B6                  00335 WR_INS
MPASM 5.55                 SPIN_ME_ROUND.ASM   3-11-2014  14:47:49         PAGE  9


LOC  OBJECT CODE     LINE SOURCE TEXT
  VALUE

00B6   1108           00336         bcf             RS                              ;clear RS
00B7   00F8           00337         movwf   com                             ;W --> com
00B8   39F0           00338         andlw   0xF0                    ;mask 4 bits MSB w = X0
00B9   0088           00339         movwf   PORTD                   ;Send 4 bits MSB
00BA   1588           00340         bsf             E                               ;
00BB   2???           00341         call    delay5ms
00BC   2???           00342     call delay5ms
00BD   2???           00343         call delay5ms;__    __
00BE   1188           00344         bcf             E                               ;  |__|
00BF   0E78           00345         swapf   com,w
00C0   39F0           00346         andlw   0xF0                    ;1111 0010
00C1   0088           00347         movwf   PORTD                   ;send 4 bits LSB
00C2   1588           00348         bsf             E                               ;
00C3   2???           00349         call    delay5ms
00C4   2???           00350     call delay5ms
00C5   2???           00351         call delay5ms   ;__    __
00C6   1188           00352         bcf             E                               ;  |__|
00C7   2???           00353         call    delay5ms
00C8   2???           00354     call delay5ms
00C9   2???           00355         call delay5ms
00CA   0008           00356         return
                      00357 
                      00358 ; Write data at current cursor location
                      00359 ; Character code (see page 7-104) must be in W
00CB                  00360 WR_DATA
00CB   1508           00361         bsf             RS
00CC   00F7           00362         movwf   dat
00CD   0877           00363         movf    dat,w
00CE   39F0           00364         andlw   0xF0
00CF   3E04           00365         addlw   4
00D0   0088           00366         movwf   PORTD
00D1   1588           00367         bsf             E                               ;
00D2   2???           00368         call    delay5ms
00D3   2???           00369     call delay5ms
00D4   2???           00370         call delay5ms   ;__    __
00D5   1188           00371         bcf             E                               ;  |__|
00D6   0E77           00372         swapf   dat,w
00D7   39F0           00373         andlw   0xF0
00D8   3E04           00374         addlw   4
00D9   0088           00375         movwf   PORTD
00DA   1588           00376         bsf             E                               ;
00DB   2???           00377         call    delay5ms
00DC   2???           00378     call delay5ms
00DD   2???           00379         call delay5ms   ;__    __
00DE   1188           00380         bcf             E                               ;  |__|
00DF   0008           00381         return
                      00382 
3F72                  00383     END
MPASM 5.55                 SPIN_ME_ROUND.ASM   3-11-2014  14:47:49         PAGE 10


SYMBOL TABLE
  LABEL                             VALUE 

ACKDT                             00000005
ACKEN                             00000004
ACKSTAT                           00000006
ADCON0                            0000001F
ADCON1                            0000009F
ADCS0                             00000006
ADCS1                             00000007
ADDEN                             00000003
ADFM                              00000007
ADIE                              00000006
ADIF                              00000006
ADON                              00000000
ADRESH                            0000001E
ADRESL                            0000009E
BCLIE                             00000003
BCLIF                             00000003
BF                                00000000
BRGH                              00000002
C                                 00000000
CCP1CON                           00000017
CCP1IE                            00000002
CCP1IF                            00000002
CCP1M0                            00000000
CCP1M1                            00000001
CCP1M2                            00000002
CCP1M3                            00000003
CCP1X                             00000005
CCP1Y                             00000004
CCP2CON                           0000001D
CCP2IE                            00000000
CCP2IF                            00000000
CCP2M0                            00000000
CCP2M1                            00000001
CCP2M2                            00000002
CCP2M3                            00000003
CCP2X                             00000005
CCP2Y                             00000004
CCPR1                             00000015
CCPR1H                            00000016
CCPR1L                            00000015
CCPR2                             0000001B
CCPR2H                            0000001C
CCPR2L                            0000001B
CHS0                              00000003
CHS1                              00000004
CHS2                              00000005
CKE                               00000006
CKP                               00000004
CREN                              00000004
CSRC                              00000007
Candle_Msg                        00000005
Clear_Display                     000000B0
D                                 00000005
MPASM 5.55                 SPIN_ME_ROUND.ASM   3-11-2014  14:47:49         PAGE 11


SYMBOL TABLE
  LABEL                             VALUE 

DATA_ADDRESS                      00000005
DC                                00000001
D_A                               00000005
D_NOT_A                           00000005
Delay_0                           0000007E
Display                           
E                                 PORTD,3
EEADR                             0000010D
EEADRH                            0000010F
EECON1                            0000018C
EECON2                            0000018D
EEDATA                            0000010C
EEDATH                            0000010E
EEIE                              00000004
EEIF                              00000004
EEPGD                             00000007
F                                 00000001
FERR                              00000002
FSR                               00000004
GCEN                              00000007
GIE                               00000007
GO                                00000002
GO_DONE                           00000002
GO_NOT_DONE                       00000002
HalfS                             00000083
HalfS_0                           00000089
I2C_DATA                          00000005
I2C_READ                          00000002
I2C_START                         00000003
I2C_STOP                          00000004
IBF                               00000007
IBOV                              00000005
INDF                              00000000
INTCON                            0000000B
INTE                              00000004
INTEDG                            00000006
INTF                              00000001
IRDATA                            PORTE, 0
IRP                               00000007
InitLCD                           00000092
NOT_A                             00000005
NOT_ADDRESS                       00000005
NOT_BO                            00000000
NOT_BOR                           00000000
NOT_DONE                          00000002
NOT_PD                            00000003
NOT_POR                           00000001
NOT_RBPU                          00000007
NOT_RC8                           00000006
NOT_T1SYNC                        00000002
NOT_TO                            00000004
NOT_TX8                           00000006
NOT_W                             00000002
MPASM 5.55                 SPIN_ME_ROUND.ASM   3-11-2014  14:47:49         PAGE 12


SYMBOL TABLE
  LABEL                             VALUE 

NOT_WRITE                         00000002
No_Candle_Msg                     00000011
OBF                               00000006
OERR                              00000001
OPTION_REG                        00000081
P                                 00000004
PCFG0                             00000000
PCFG1                             00000001
PCFG2                             00000002
PCFG3                             00000003
PCL                               00000002
PCLATH                            0000000A
PCON                              0000008E
PEIE                              00000006
PEN                               00000002
PIE1                              0000008C
PIE2                              0000008D
PIR1                              0000000C
PIR2                              0000000D
PORTA                             00000005
PORTB                             00000006
PORTC                             00000007
PORTD                             00000008
PORTE                             00000009
PR2                               00000092
PS0                               00000000
PS1                               00000001
PS2                               00000002
PSA                               00000003
PSPIE                             00000007
PSPIF                             00000007
PSPMODE                           00000004
R                                 00000002
RA0                               00000000
RA1                               00000001
RA2                               00000002
RA3                               00000003
RA4                               00000004
RA5                               00000005
RB0                               00000000
RB1                               00000001
RB2                               00000002
RB3                               00000003
RB4                               00000004
RB5                               00000005
RB6                               00000006
RB7                               00000007
RBIE                              00000003
RBIF                              00000000
RC0                               00000000
RC1                               00000001
RC2                               00000002
RC3                               00000003
MPASM 5.55                 SPIN_ME_ROUND.ASM   3-11-2014  14:47:49         PAGE 13


SYMBOL TABLE
  LABEL                             VALUE 

RC4                               00000004
RC5                               00000005
RC6                               00000006
RC7                               00000007
RC8_9                             00000006
RC9                               00000006
RCD8                              00000000
RCEN                              00000003
RCIE                              00000005
RCIF                              00000005
RCREG                             0000001A
RCSTA                             00000018
RD                                00000000
RD0                               00000000
RD1                               00000001
RD2                               00000002
RD3                               00000003
RD4                               00000004
RD5                               00000005
RD6                               00000006
RD7                               00000007
RE0                               00000000
RE1                               00000001
RE2                               00000002
READ_WRITE                        00000002
ROTATEMOTOR                       00000038
RP0                               00000005
RP1                               00000006
RS                                PORTD,2
RSEN                              00000001
RX9                               00000006
RX9D                              00000000
R_NOT_W                           00000002
R_W                               00000002
S                                 00000003
SEN                               00000000
SMP                               00000007
SPBRG                             00000099
SPEN                              00000007
SREN                              00000005
SSPADD                            00000093
SSPBUF                            00000013
SSPCON                            00000014
SSPCON2                           00000091
SSPEN                             00000005
SSPIE                             00000003
SSPIF                             00000003
SSPM0                             00000000
SSPM1                             00000001
SSPM2                             00000002
SSPM3                             00000003
SSPOV                             00000006
SSPSTAT                           00000094
MPASM 5.55                 SPIN_ME_ROUND.ASM   3-11-2014  14:47:49         PAGE 14


SYMBOL TABLE
  LABEL                             VALUE 

STATUS                            00000003
SYNC                              00000004
Switch_Lines                      000000B3
T0CS                              00000005
T0IE                              00000005
T0IF                              00000002
T0SE                              00000004
T1CKPS0                           00000004
T1CKPS1                           00000005
T1CON                             00000010
T1INSYNC                          00000002
T1OSCEN                           00000003
T1SYNC                            00000002
T2CKPS0                           00000000
T2CKPS1                           00000001
T2CON                             00000012
TMR0                              00000001
TMR0IE                            00000005
TMR0IF                            00000002
TMR1                              0000000E
TMR1CS                            00000001
TMR1H                             0000000F
TMR1IE                            00000000
TMR1IF                            00000000
TMR1L                             0000000E
TMR1ON                            00000000
TMR2                              00000011
TMR2IE                            00000001
TMR2IF                            00000001
TMR2ON                            00000002
TOUTPS0                           00000003
TOUTPS1                           00000004
TOUTPS2                           00000005
TOUTPS3                           00000006
TRISA                             00000085
TRISA0                            00000000
TRISA1                            00000001
TRISA2                            00000002
TRISA3                            00000003
TRISA4                            00000004
TRISA5                            00000005
TRISB                             00000086
TRISB0                            00000000
TRISB1                            00000001
TRISB2                            00000002
TRISB3                            00000003
TRISB4                            00000004
TRISB5                            00000005
TRISB6                            00000006
TRISB7                            00000007
TRISC                             00000087
TRISC0                            00000000
TRISC1                            00000001
MPASM 5.55                 SPIN_ME_ROUND.ASM   3-11-2014  14:47:49         PAGE 15


SYMBOL TABLE
  LABEL                             VALUE 

TRISC2                            00000002
TRISC3                            00000003
TRISC4                            00000004
TRISC5                            00000005
TRISC6                            00000006
TRISC7                            00000007
TRISD                             00000088
TRISD0                            00000000
TRISD1                            00000001
TRISD2                            00000002
TRISD3                            00000003
TRISD4                            00000004
TRISD5                            00000005
TRISD6                            00000006
TRISD7                            00000007
TRISE                             00000089
TRISE0                            00000000
TRISE1                            00000001
TRISE2                            00000002
TRMT                              00000001
TX8_9                             00000006
TX9                               00000006
TX9D                              00000000
TXD8                              00000000
TXEN                              00000005
TXIE                              00000004
TXIF                              00000004
TXREG                             00000019
TXSTA                             00000098
Table_Counter                     00000075
UA                                00000001
W                                 00000000
WCOL                              00000007
WR                                00000001
WREN                              00000002
WRERR                             00000003
WR_DATA                           000000CB
WR_INS                            000000B6
Z                                 00000002
_.org_1_0036                      00000036
_.org_1_0076                      00000076
_.org_1_007F                      0000007F
_.org_1_008A                      0000008A
_.org_1_008C                      0000008C
_.org_1_008F                      0000008F
_BODEN_OFF                        00003FBF
_BODEN_ON                         00003FFF
_BOREN_OFF                        00003FBF
_BOREN_ON                         00003FFF
_CONFIG                           00002007
_CPD_OFF                          00003FFF
_CPD_ON                           00003EFF
_CP_ALL                           00000FCF
MPASM 5.55                 SPIN_ME_ROUND.ASM   3-11-2014  14:47:49         PAGE 16


SYMBOL TABLE
  LABEL                             VALUE 

_CP_HALF                          00001FDF
_CP_OFF                           00003FFF
_CP_UPPER_256                     00002FEF
_DEBUG_OFF                        00003FFF
_DEBUG_ON                         000037FF
_DEVID1                           00002006
_FOSC_EXTRC                       00003FFF
_FOSC_HS                          00003FFE
_FOSC_LP                          00003FFC
_FOSC_XT                          00003FFD
_HS_OSC                           00003FFE
_IDLOC0                           00002000
_IDLOC1                           00002001
_IDLOC2                           00002002
_IDLOC3                           00002003
_LP_OSC                           00003FFC
_LVP_OFF                          00003F7F
_LVP_ON                           00003FFF
_PWRTE_OFF                        00003FFF
_PWRTE_ON                         00003FF7
_RC_OSC                           00003FFF
_WDTE_OFF                         00003FFB
_WDTE_ON                          00003FFF
_WDT_OFF                          00003FFB
_WDT_ON                           00003FFF
_WRT_ENABLE_OFF                   00003DFF
_WRT_ENABLE_ON                    00003FFF
_WRT_OFF                          00003DFF
_WRT_ON                           00003FFF
_XT_OSC                           00003FFD
__16F877                          00000001
com                               00000078
dat                               00000077
del1                              00000070
del2                              00000071
delH                              00000072
delL                              00000074
delM                              00000073
delay5ms                          0000007A
main                              0000001C
motor_count                       00000076
motor_del                         0000006F
motor_del_0                       00000073
movlf                             
no_candle                         00000059
present                           00000079
start_rot                         0000003C
waiting                           0000002E
writeBCD                          
yes_candle                        00000064

MPASM 5.55                 SPIN_ME_ROUND.ASM   3-11-2014  14:47:49         PAGE 17





Errors   :     0
Warnings :     0 reported,     0 suppressed
Messages :     6 reported,     0 suppressed

