MPASM 5.55                 SPIN_ME_ROUND.ASM   3-4-2014  17:26:07         PAGE  1


LOC  OBJECT CODE     LINE SOURCE TEXT
  VALUE

                      00001 ;Test for motor controlled by L298N. 
                      00002 ;Want to rotate 36deg = 15.5 steps, so alternate between 15 and 16.
                      00003 ;Also note we save which step we're on (for the 15 step, you go back one each cycle)
                      00004 ;Excitation sequence is 1-2-3-4 (four steps) controlled by RA[3:0]
                      00005 ;   1 = 1001
                      00006 ;   2 = 1010
                      00007 ;   3 = 0110
                      00008 ;   4 = 0101
                      00009 ;http://duvindu92.blogspot.ca/2013/07/driving-bipolar-stepper-motor-with.html
                      00010 
                      00011  list p=16f877
                      00012       #include <p16f877.inc>
                      00001         LIST
                      00002 
                      00003 ;==========================================================================
                      00004 ;  MPASM PIC16F877 processor include
                      00005 ; 
                      00006 ;  (c) Copyright 1999-2014 Microchip Technology, All rights reserved
                      00007 ;==========================================================================
                      00008 
                      00540         LIST
2007   3F72           00013       __CONFIG _CP_OFF & _WDT_OFF & _BODEN_ON & _PWRTE_ON & _HS_OSC & _WRT_ENABLE_ON & _CPD_OFF & _LVP_O
                            FF
                      00014 
                      00015     #define     RS      PORTD,2
                      00016         #define E       PORTD,3
                      00017 
                      00018     cblock  0x70
  00000070            00019         del1
  00000071            00020         del2
  00000072            00021         delH
  00000073            00022         delM
  00000074            00023         delL
  00000075            00024         start_step  ;this is new
  00000076            00025         step_count  ;this is new
  00000077            00026         step_max    ;this is new
  00000078            00027         dat
  00000079            00028         com
                      00029     endc
                      00030 
                      00031 movlf   macro   l, f
                      00032         movlw   l
                      00033         movwf   f
                      00034         endm
                      00035 
                      00036 writeBCD    macro   reg         ; from a register containing BCD
                      00037             movf    reg, W
                      00038             addlw   B'00110000'
                      00039             call WR_DATA
                      00040             endm
                      00041 
                      00042     ORG       0x000
0000   2???           00043     goto      main
MPASM 5.55                 SPIN_ME_ROUND.ASM   3-4-2014  17:26:07         PAGE  2


LOC  OBJECT CODE     LINE SOURCE TEXT
  VALUE

                      00044     ORG       0x004
0004   0009           00045     retfie
                      00046 
0005                  00047 main
0005   018B           00048     clrf        INTCON
0006   1683 1303      00049     banksel     TRISA
Message[302]: Register in operand not in bank 0.  Ensure that bank bits are correct.
0008   0185           00050     clrf        TRISA
                      00051     movlf       b'11110010', TRISB
0009   30F2               M         movlw   b'11110010'
Message[302]: Register in operand not in bank 0.  Ensure that bank bits are correct.
000A   0086               M         movwf   TRISB
Message[302]: Register in operand not in bank 0.  Ensure that bank bits are correct.
000B   0188           00052     clrf        TRISD
                      00053     movlf       0x07, ADCON1
000C   3007               M         movlw   0x07
Message[302]: Register in operand not in bank 0.  Ensure that bank bits are correct.
000D   009F               M         movwf   ADCON1
000E   1283 1303      00054     banksel     PORTA
0010   0185           00055     clrf        PORTA
0011   0186           00056     clrf        PORTB
0012   0188           00057     clrf        PORTD
0013   2???           00058     call        InitLCD
                      00059     movlf       d'1', start_step
0014   3001               M         movlw   d'1'
0015   00F5               M         movwf   start_step
                      00060     movlf       d'15', step_max
0016   300F               M         movlw   d'15'
0017   00F7               M         movwf   step_max
                      00061 
0018                  00062 waiting
0018   1C86           00063          btfss          PORTB,1     ;Wait until data is available from the keypad
0019   2???           00064          goto           waiting
                      00065 
001A   0E06           00066          swapf          PORTB,W     ;Read PortB<7:4> into W<3:0>
001B   390F           00067          andlw          0x0F
001C   3A0C           00068          xorlw      0xC         ;Will be all zeros if its "START"
001D   1903           00069          btfsc      STATUS,Z    ;and Z will be high, so skip if not high
001E   2???           00070          call       ROTATEMOTOR
                      00071 
001F   1886           00072          btfsc          PORTB,1     ;Wait until key is released
0020   2???           00073          goto           $-1
0021   2???           00074          goto       waiting
                      00075 
0022                  00076 ROTATEMOTOR
                      00077 
                      00078 ;loop
                      00079 ;    movlf   b'1010', PORTA
                      00080 ;    call    rand_del
                      00081 ;    movlf   b'0110', PORTA
                      00082 ;    call    rand_del
                      00083 ;    movlf   b'0101', PORTA
                      00084 ;    call    rand_del
MPASM 5.55                 SPIN_ME_ROUND.ASM   3-4-2014  17:26:07         PAGE  3


LOC  OBJECT CODE     LINE SOURCE TEXT
  VALUE

                      00085 ;    movlf   b'1001', PORTA
                      00086 ;    call    rand_del
                      00087 ;
                      00088 ;    decfsz  step_max
                      00089 ;    goto    loop
                      00090 ;    movlf   d'4', step_max
                      00091 ;    return
                      00092 
                      00093 
                      00094 
                      00095 
0022   2???           00096     call    Clear_Display
                      00097     writeBCD    step_max
0023   0877               M             movf    step_max, W
0024   3E30               M             addlw   B'00110000'
0025   2???               M             call WR_DATA
                      00098     writeBCD    start_step
0026   0875               M             movf    start_step, W
0027   3E30               M             addlw   B'00110000'
0028   2???               M             call WR_DATA
                      00099 
0029   01F6           00100     clrf    step_count
                      00101 
                      00102     ;go to the right starting step
002A   3001           00103     movlw   d'1'
002B   0275           00104     subwf   start_step, W
002C   1903           00105     btfsc   STATUS,Z
002D   2???           00106     goto    firststep
                      00107 
002E   3002           00108     movlw   d'2'
002F   0275           00109     subwf   start_step, W
0030   1903           00110     btfsc   STATUS,Z
0031   2???           00111     goto    secondstep
                      00112 
0032   3003           00113     movlw   d'3'
0033   0275           00114     subwf   start_step, W
0034   1903           00115     btfsc   STATUS,Z
0035   2???           00116     goto    thirdstep
                      00117 
0036   3004           00118     movlw   d'4'
0037   0275           00119     subwf   start_step, W
0038   1903           00120     btfsc   STATUS,Z
0039   2???           00121     goto    fourthstep
                      00122 
003A                  00123 four_steps
                      00124 
003A                  00125 firststep
003A   0877           00126     movf    step_max, W
003B   0276           00127     subwf   step_count, W
003C   1D03           00128     btfss   STATUS, Z
003D   2???           00129     goto    pulse1
                      00130     movlf   d'1', start_step
003E   3001               M         movlw   d'1'
MPASM 5.55                 SPIN_ME_ROUND.ASM   3-4-2014  17:26:07         PAGE  4


LOC  OBJECT CODE     LINE SOURCE TEXT
  VALUE

003F   00F5               M         movwf   start_step
0040   2???           00131     goto    end_rotate
0041                  00132 pulse1
                      00133     movlf   B'1001', PORTA
0041   3009               M         movlw   B'1001'
0042   0085               M         movwf   PORTA
0043   2???           00134     call    motor_del
0044   0AF6           00135     incf    step_count, F
                      00136 
0045                  00137 secondstep
0045   0877           00138     movf    step_max, W
0046   0276           00139     subwf   step_count, W
0047   1D03           00140     btfss   STATUS, Z
0048   2???           00141     goto    pulse2
                      00142     movlf   d'2', start_step
0049   3002               M         movlw   d'2'
004A   00F5               M         movwf   start_step
004B   2???           00143     goto    end_rotate
004C                  00144 pulse2
                      00145     movlf   B'1010', PORTA
004C   300A               M         movlw   B'1010'
004D   0085               M         movwf   PORTA
004E   2???           00146     call    motor_del
004F   0AF6           00147     incf    step_count, F
                      00148 
0050                  00149 thirdstep
0050   0877           00150     movf    step_max, W
0051   0276           00151     subwf   step_count, W
0052   1D03           00152     btfss   STATUS, Z
0053   2???           00153     goto    pulse3
                      00154     movlf   d'3', start_step
0054   3003               M         movlw   d'3'
0055   00F5               M         movwf   start_step
0056   2???           00155     goto    end_rotate
0057                  00156 pulse3
                      00157     movlf   B'0110', PORTA
0057   3006               M         movlw   B'0110'
0058   0085               M         movwf   PORTA
0059   2???           00158     call    motor_del
005A   0AF6           00159     incf    step_count, F
                      00160 
005B                  00161 fourthstep
005B   0877           00162     movf    step_max, W
005C   0276           00163     subwf   step_count, W
005D   1D03           00164     btfss   STATUS, Z
005E   2???           00165     goto    pulse4
                      00166     movlf   d'4', start_step
005F   3004               M         movlw   d'4'
0060   00F5               M         movwf   start_step
0061   2???           00167     goto    end_rotate
0062                  00168 pulse4
                      00169     movlf   B'0101', PORTA
0062   3005               M         movlw   B'0101'
MPASM 5.55                 SPIN_ME_ROUND.ASM   3-4-2014  17:26:07         PAGE  5


LOC  OBJECT CODE     LINE SOURCE TEXT
  VALUE

0063   0085               M         movwf   PORTA
0064   2???           00170     call    motor_del
0065   0AF6           00171     incf    step_count, F
                      00172 
0066   2???           00173     goto    four_steps
                      00174 
0067                  00175 end_rotate
                      00176    ;if step_max is 15 incr, 16 dec
0067   3010           00177     movlw    d'16'
0068   0277           00178     subwf   step_max, W
0069   1D03           00179     btfss   STATUS,Z
006A   2???           00180     goto    must_inc
006B                  00181 must_dec
006B   03F7           00182     decf    step_max, F
006C   0008           00183     return
006D                  00184 must_inc
006D   0AF7           00185     incf     step_max, F
006E   0008           00186     return
                      00187 
                      00188 
                      00189 
006F                  00190 motor_del
                      00191       movlf 0xF3, delH
006F   30F3               M         movlw   0xF3
0070   00F2               M         movwf   delH
                      00192       movlf 0x7F, delL
0071   307F               M         movlw   0x7F
0072   00F4               M         movwf   delL
0073                  00193 motor_del_0
0073   0BF2           00194       decfsz    delH, F
0074   2???           00195           goto      $+2
0075   0BF4           00196           decfsz        delL, F
0076   2???           00197           goto      motor_del_0
0077   0008           00198           return
                      00199 
                      00200 
0078                  00201 delay5ms
                      00202         movlf   0xC3, delH
0078   30C3               M         movlw   0xC3
0079   00F2               M         movwf   delH
                      00203         movlf   0x0A, delL
007A   300A               M         movlw   0x0A
007B   00F4               M         movwf   delL
007C                  00204 Delay_0
007C   0BF2           00205         decfsz  delH, f
007D   2???           00206         goto    $+2
007E   0BF4           00207         decfsz  delL, f
007F   2???           00208         goto    Delay_0
0080   0008           00209     return
                      00210 
0081                  00211 HalfS
                      00212       movlf 0x8A, delH
0081   308A               M         movlw   0x8A
MPASM 5.55                 SPIN_ME_ROUND.ASM   3-4-2014  17:26:07         PAGE  6


LOC  OBJECT CODE     LINE SOURCE TEXT
  VALUE

0082   00F2               M         movwf   delH
                      00213       movlf 0xBA, delM
0083   30BA               M         movlw   0xBA
0084   00F3               M         movwf   delM
                      00214       movlf 0x03, delL
0085   3003               M         movlw   0x03
0086   00F4               M         movwf   delL
0087                  00215 HalfS_0
0087   0BF2           00216       decfsz    delH, F
0088   2???           00217           goto  $+2
0089   0BF3           00218           decfsz        delM, F
008A   2???           00219           goto  $+2
008B   0BF4           00220           decfsz        delL, F
008C   2???           00221           goto  HalfS_0
                      00222 
008D   2???           00223           goto  $+1
008E   0000           00224           nop
008F   0008           00225           return
                      00226 
                      00227 
                      00228 ; Initialize the LCD
0090                  00229 InitLCD
0090   1283           00230         bcf STATUS,RP0
0091   1588           00231         bsf E     ;E default high
                      00232 
                      00233         ;Wait for LCD POR to finish (~15ms)
0092   2???           00234         call delay5ms
0093   2???           00235         call delay5ms
0094   2???           00236         call delay5ms
                      00237 
                      00238         ;Ensure 8-bit mode first (no way to immediately guarantee 4-bit mode)
                      00239         ; -> Send b'0011' 3 times
0095   3033           00240         movlw   b'00110011'
0096   2???           00241         call    WR_INS
0097   2???           00242         call delay5ms
0098   2???           00243         call delay5ms
0099   3032           00244         movlw   b'00110010'
009A   2???           00245         call    WR_INS
009B   2???           00246         call delay5ms
009C   2???           00247         call delay5ms
                      00248 
                      00249         ; 4 bits, 2 lines, 5x7 dots
009D   3028           00250         movlw   b'00101000'
009E   2???           00251         call    WR_INS
009F   2???           00252         call delay5ms
00A0   2???           00253         call delay5ms
                      00254 
                      00255         ; display on/off
00A1   300C           00256         movlw   b'00001100'
00A2   2???           00257         call    WR_INS
00A3   2???           00258         call delay5ms
00A4   2???           00259         call delay5ms
                      00260 
MPASM 5.55                 SPIN_ME_ROUND.ASM   3-4-2014  17:26:07         PAGE  7


LOC  OBJECT CODE     LINE SOURCE TEXT
  VALUE

                      00261         ; Entry mode
00A5   3006           00262         movlw   b'00000110'
00A6   2???           00263         call    WR_INS
00A7   2???           00264         call delay5ms
00A8   2???           00265         call delay5ms
                      00266 
                      00267         ; Clear ram
00A9   3001           00268         movlw   b'00000001'
00AA   2???           00269         call    WR_INS
00AB   2???           00270         call delay5ms
00AC   2???           00271         call delay5ms
00AD   0008           00272         return
                      00273 
                      00274 ; Clear the display
00AE                  00275 Clear_Display
00AE   3001           00276                 movlw   B'00000001'
00AF   2???           00277                 call    WR_INS
00B0   0008           00278                 return
                      00279 
                      00280 ;Switch lines
00B1                  00281 Switch_Lines
00B1   30C0           00282                 movlw   B'11000000'
00B2   2???           00283                 call    WR_INS
00B3   0008           00284                 return
                      00285 
                      00286 ; Write an instruction to the LCD (see page 7-104)
                      00287 ; The instruction must be in W
00B4                  00288 WR_INS
00B4   1108           00289         bcf             RS                              ;clear RS
00B5   00F9           00290         movwf   com                             ;W --> com
00B6   39F0           00291         andlw   0xF0                    ;mask 4 bits MSB w = X0
00B7   0088           00292         movwf   PORTD                   ;Send 4 bits MSB
00B8   1588           00293         bsf             E                               ;
00B9   2???           00294         call    delay5ms
00BA   2???           00295     call delay5ms
00BB   2???           00296         call delay5ms;__    __
00BC   1188           00297         bcf             E                               ;  |__|
00BD   0E79           00298         swapf   com,w
00BE   39F0           00299         andlw   0xF0                    ;1111 0010
00BF   0088           00300         movwf   PORTD                   ;send 4 bits LSB
00C0   1588           00301         bsf             E                               ;
00C1   2???           00302         call    delay5ms
00C2   2???           00303     call delay5ms
00C3   2???           00304         call delay5ms   ;__    __
00C4   1188           00305         bcf             E                               ;  |__|
00C5   2???           00306         call    delay5ms
00C6   2???           00307     call delay5ms
00C7   2???           00308         call delay5ms
00C8   0008           00309         return
                      00310 
                      00311 ; Write data at current cursor location
                      00312 ; Character code (see page 7-104) must be in W
00C9                  00313 WR_DATA
MPASM 5.55                 SPIN_ME_ROUND.ASM   3-4-2014  17:26:07         PAGE  8


LOC  OBJECT CODE     LINE SOURCE TEXT
  VALUE

00C9   1508           00314         bsf             RS
00CA   00F8           00315         movwf   dat
00CB   0878           00316         movf    dat,w
00CC   39F0           00317         andlw   0xF0
00CD   3E04           00318         addlw   4
00CE   0088           00319         movwf   PORTD
00CF   1588           00320         bsf             E                               ;
00D0   2???           00321         call    delay5ms
00D1   2???           00322     call delay5ms
00D2   2???           00323         call delay5ms   ;__    __
00D3   1188           00324         bcf             E                               ;  |__|
00D4   0E78           00325         swapf   dat,w
00D5   39F0           00326         andlw   0xF0
00D6   3E04           00327         addlw   4
00D7   0088           00328         movwf   PORTD
00D8   1588           00329         bsf             E                               ;
00D9   2???           00330         call    delay5ms
00DA   2???           00331     call delay5ms
00DB   2???           00332         call delay5ms   ;__    __
00DC   1188           00333         bcf             E                               ;  |__|
00DD   0008           00334         return
                      00335 
3F72                  00336     END
MPASM 5.55                 SPIN_ME_ROUND.ASM   3-4-2014  17:26:07         PAGE  9


SYMBOL TABLE
  LABEL                             VALUE 

ACKDT                             00000005
ACKEN                             00000004
ACKSTAT                           00000006
ADCON0                            0000001F
ADCON1                            0000009F
ADCS0                             00000006
ADCS1                             00000007
ADDEN                             00000003
ADFM                              00000007
ADIE                              00000006
ADIF                              00000006
ADON                              00000000
ADRESH                            0000001E
ADRESL                            0000009E
BCLIE                             00000003
BCLIF                             00000003
BF                                00000000
BRGH                              00000002
C                                 00000000
CCP1CON                           00000017
CCP1IE                            00000002
CCP1IF                            00000002
CCP1M0                            00000000
CCP1M1                            00000001
CCP1M2                            00000002
CCP1M3                            00000003
CCP1X                             00000005
CCP1Y                             00000004
CCP2CON                           0000001D
CCP2IE                            00000000
CCP2IF                            00000000
CCP2M0                            00000000
CCP2M1                            00000001
CCP2M2                            00000002
CCP2M3                            00000003
CCP2X                             00000005
CCP2Y                             00000004
CCPR1                             00000015
CCPR1H                            00000016
CCPR1L                            00000015
CCPR2                             0000001B
CCPR2H                            0000001C
CCPR2L                            0000001B
CHS0                              00000003
CHS1                              00000004
CHS2                              00000005
CKE                               00000006
CKP                               00000004
CREN                              00000004
CSRC                              00000007
Clear_Display                     000000AE
D                                 00000005
DATA_ADDRESS                      00000005
MPASM 5.55                 SPIN_ME_ROUND.ASM   3-4-2014  17:26:07         PAGE 10


SYMBOL TABLE
  LABEL                             VALUE 

DC                                00000001
D_A                               00000005
D_NOT_A                           00000005
Delay_0                           0000007C
E                                 PORTD,3
EEADR                             0000010D
EEADRH                            0000010F
EECON1                            0000018C
EECON2                            0000018D
EEDATA                            0000010C
EEDATH                            0000010E
EEIE                              00000004
EEIF                              00000004
EEPGD                             00000007
F                                 00000001
FERR                              00000002
FSR                               00000004
GCEN                              00000007
GIE                               00000007
GO                                00000002
GO_DONE                           00000002
GO_NOT_DONE                       00000002
HalfS                             00000081
HalfS_0                           00000087
I2C_DATA                          00000005
I2C_READ                          00000002
I2C_START                         00000003
I2C_STOP                          00000004
IBF                               00000007
IBOV                              00000005
INDF                              00000000
INTCON                            0000000B
INTE                              00000004
INTEDG                            00000006
INTF                              00000001
IRP                               00000007
InitLCD                           00000090
NOT_A                             00000005
NOT_ADDRESS                       00000005
NOT_BO                            00000000
NOT_BOR                           00000000
NOT_DONE                          00000002
NOT_PD                            00000003
NOT_POR                           00000001
NOT_RBPU                          00000007
NOT_RC8                           00000006
NOT_T1SYNC                        00000002
NOT_TO                            00000004
NOT_TX8                           00000006
NOT_W                             00000002
NOT_WRITE                         00000002
OBF                               00000006
OERR                              00000001
MPASM 5.55                 SPIN_ME_ROUND.ASM   3-4-2014  17:26:07         PAGE 11


SYMBOL TABLE
  LABEL                             VALUE 

OPTION_REG                        00000081
P                                 00000004
PCFG0                             00000000
PCFG1                             00000001
PCFG2                             00000002
PCFG3                             00000003
PCL                               00000002
PCLATH                            0000000A
PCON                              0000008E
PEIE                              00000006
PEN                               00000002
PIE1                              0000008C
PIE2                              0000008D
PIR1                              0000000C
PIR2                              0000000D
PORTA                             00000005
PORTB                             00000006
PORTC                             00000007
PORTD                             00000008
PORTE                             00000009
PR2                               00000092
PS0                               00000000
PS1                               00000001
PS2                               00000002
PSA                               00000003
PSPIE                             00000007
PSPIF                             00000007
PSPMODE                           00000004
R                                 00000002
RA0                               00000000
RA1                               00000001
RA2                               00000002
RA3                               00000003
RA4                               00000004
RA5                               00000005
RB0                               00000000
RB1                               00000001
RB2                               00000002
RB3                               00000003
RB4                               00000004
RB5                               00000005
RB6                               00000006
RB7                               00000007
RBIE                              00000003
RBIF                              00000000
RC0                               00000000
RC1                               00000001
RC2                               00000002
RC3                               00000003
RC4                               00000004
RC5                               00000005
RC6                               00000006
RC7                               00000007
MPASM 5.55                 SPIN_ME_ROUND.ASM   3-4-2014  17:26:07         PAGE 12


SYMBOL TABLE
  LABEL                             VALUE 

RC8_9                             00000006
RC9                               00000006
RCD8                              00000000
RCEN                              00000003
RCIE                              00000005
RCIF                              00000005
RCREG                             0000001A
RCSTA                             00000018
RD                                00000000
RD0                               00000000
RD1                               00000001
RD2                               00000002
RD3                               00000003
RD4                               00000004
RD5                               00000005
RD6                               00000006
RD7                               00000007
RE0                               00000000
RE1                               00000001
RE2                               00000002
READ_WRITE                        00000002
ROTATEMOTOR                       00000022
RP0                               00000005
RP1                               00000006
RS                                PORTD,2
RSEN                              00000001
RX9                               00000006
RX9D                              00000000
R_NOT_W                           00000002
R_W                               00000002
S                                 00000003
SEN                               00000000
SMP                               00000007
SPBRG                             00000099
SPEN                              00000007
SREN                              00000005
SSPADD                            00000093
SSPBUF                            00000013
SSPCON                            00000014
SSPCON2                           00000091
SSPEN                             00000005
SSPIE                             00000003
SSPIF                             00000003
SSPM0                             00000000
SSPM1                             00000001
SSPM2                             00000002
SSPM3                             00000003
SSPOV                             00000006
SSPSTAT                           00000094
STATUS                            00000003
SYNC                              00000004
Switch_Lines                      000000B1
T0CS                              00000005
MPASM 5.55                 SPIN_ME_ROUND.ASM   3-4-2014  17:26:07         PAGE 13


SYMBOL TABLE
  LABEL                             VALUE 

T0IE                              00000005
T0IF                              00000002
T0SE                              00000004
T1CKPS0                           00000004
T1CKPS1                           00000005
T1CON                             00000010
T1INSYNC                          00000002
T1OSCEN                           00000003
T1SYNC                            00000002
T2CKPS0                           00000000
T2CKPS1                           00000001
T2CON                             00000012
TMR0                              00000001
TMR0IE                            00000005
TMR0IF                            00000002
TMR1                              0000000E
TMR1CS                            00000001
TMR1H                             0000000F
TMR1IE                            00000000
TMR1IF                            00000000
TMR1L                             0000000E
TMR1ON                            00000000
TMR2                              00000011
TMR2IE                            00000001
TMR2IF                            00000001
TMR2ON                            00000002
TOUTPS0                           00000003
TOUTPS1                           00000004
TOUTPS2                           00000005
TOUTPS3                           00000006
TRISA                             00000085
TRISA0                            00000000
TRISA1                            00000001
TRISA2                            00000002
TRISA3                            00000003
TRISA4                            00000004
TRISA5                            00000005
TRISB                             00000086
TRISB0                            00000000
TRISB1                            00000001
TRISB2                            00000002
TRISB3                            00000003
TRISB4                            00000004
TRISB5                            00000005
TRISB6                            00000006
TRISB7                            00000007
TRISC                             00000087
TRISC0                            00000000
TRISC1                            00000001
TRISC2                            00000002
TRISC3                            00000003
TRISC4                            00000004
TRISC5                            00000005
MPASM 5.55                 SPIN_ME_ROUND.ASM   3-4-2014  17:26:07         PAGE 14


SYMBOL TABLE
  LABEL                             VALUE 

TRISC6                            00000006
TRISC7                            00000007
TRISD                             00000088
TRISD0                            00000000
TRISD1                            00000001
TRISD2                            00000002
TRISD3                            00000003
TRISD4                            00000004
TRISD5                            00000005
TRISD6                            00000006
TRISD7                            00000007
TRISE                             00000089
TRISE0                            00000000
TRISE1                            00000001
TRISE2                            00000002
TRMT                              00000001
TX8_9                             00000006
TX9                               00000006
TX9D                              00000000
TXD8                              00000000
TXEN                              00000005
TXIE                              00000004
TXIF                              00000004
TXREG                             00000019
TXSTA                             00000098
UA                                00000001
W                                 00000000
WCOL                              00000007
WR                                00000001
WREN                              00000002
WRERR                             00000003
WR_DATA                           000000C9
WR_INS                            000000B4
Z                                 00000002
_.org_1_0020                      00000020
_.org_1_0074                      00000074
_.org_1_007D                      0000007D
_.org_1_0088                      00000088
_.org_1_008A                      0000008A
_.org_1_008D                      0000008D
_BODEN_OFF                        00003FBF
_BODEN_ON                         00003FFF
_BOREN_OFF                        00003FBF
_BOREN_ON                         00003FFF
_CONFIG                           00002007
_CPD_OFF                          00003FFF
_CPD_ON                           00003EFF
_CP_ALL                           00000FCF
_CP_HALF                          00001FDF
_CP_OFF                           00003FFF
_CP_UPPER_256                     00002FEF
_DEBUG_OFF                        00003FFF
_DEBUG_ON                         000037FF
MPASM 5.55                 SPIN_ME_ROUND.ASM   3-4-2014  17:26:07         PAGE 15


SYMBOL TABLE
  LABEL                             VALUE 

_DEVID1                           00002006
_FOSC_EXTRC                       00003FFF
_FOSC_HS                          00003FFE
_FOSC_LP                          00003FFC
_FOSC_XT                          00003FFD
_HS_OSC                           00003FFE
_IDLOC0                           00002000
_IDLOC1                           00002001
_IDLOC2                           00002002
_IDLOC3                           00002003
_LP_OSC                           00003FFC
_LVP_OFF                          00003F7F
_LVP_ON                           00003FFF
_PWRTE_OFF                        00003FFF
_PWRTE_ON                         00003FF7
_RC_OSC                           00003FFF
_WDTE_OFF                         00003FFB
_WDTE_ON                          00003FFF
_WDT_OFF                          00003FFB
_WDT_ON                           00003FFF
_WRT_ENABLE_OFF                   00003DFF
_WRT_ENABLE_ON                    00003FFF
_WRT_OFF                          00003DFF
_WRT_ON                           00003FFF
_XT_OSC                           00003FFD
__16F877                          00000001
com                               00000079
dat                               00000078
del1                              00000070
del2                              00000071
delH                              00000072
delL                              00000074
delM                              00000073
delay5ms                          00000078
end_rotate                        00000067
firststep                         0000003A
four_steps                        0000003A
fourthstep                        0000005B
main                              00000005
motor_del                         0000006F
motor_del_0                       00000073
movlf                             
must_dec                          0000006B
must_inc                          0000006D
pulse1                            00000041
pulse2                            0000004C
pulse3                            00000057
pulse4                            00000062
secondstep                        00000045
start_step                        00000075
step_count                        00000076
step_max                          00000077
thirdstep                         00000050
MPASM 5.55                 SPIN_ME_ROUND.ASM   3-4-2014  17:26:07         PAGE 16


SYMBOL TABLE
  LABEL                             VALUE 

waiting                           00000018
writeBCD                          

Errors   :     0
Warnings :     0 reported,     0 suppressed
Messages :     4 reported,     0 suppressed

